(lp1
I561087
aI363042
aI230493
aI297458
aI730013
aI644255
aI490099
aI444290
aI701516
aI220339
aI752759
aI153563
aI458403
aI1025545
aI5327151
aI79861
aI952596
aI4646877
aI856584
aI698406
aI5553961
aI709453
aI541924
aI595567
aI656313
aI14688
aI574724
aI768687
aI770315
aI218684
aI417969
aI887693
aI635904
aI159168
aI864610
aI1036185
aI175436
aI52851
aI1011010
aI241840
aI965941
aI662954
aI42324
aI687711
aI443203
aI886828
aI595027
aI222358
aI42311
aI965954
aI4948200
aI110475
aI835327
aI647692
aI734818
aI494364
aI728070
aI216166
aI701509
aI262303
aI962377
aI131160
aI520756
aI851308
aI1036651
aI563166
aI348040
aI410153
aI857863
aI5448029
aI3642236
aI3349299
aI749638
aI109057
aI507958
aI313124
aI742632
aI449663
aI409995
aI749780
aI1011209
aI384218
aI451009
aI456584
aI765193
aI541057
aI910117
aI35890
aI415034
aI238431
aI664070
aI363020
aI3546186
aI753726
aI247341
aI941620
aI744782
a.