ccopy_reg
_reconstructor
p1
(ctrees.tree
Tree
p2
c__builtin__
object
p3
NtRp4
(dp5
S'root'
p6
g1
(ctrees.tree
TreeNode
p7
g3
NtRp8
(dp9
S'state'
p10
(dp11
sS'children'
p12
(lp13
g1
(g7
g3
NtRp14
(dp15
g10
(dp16
sg12
(lp17
g1
(g7
g3
NtRp18
(dp19
g10
(dp20
sg12
(lp21
g1
(g7
g3
NtRp22
(dp23
g10
(dp24
sg12
(lp25
g1
(g7
g3
NtRp26
(dp27
g10
(dp28
sg12
(lp29
g1
(g7
g3
NtRp30
(dp31
g10
(dp32
sg12
(lp33
g1
(ctrees.tree
TreeLeaf
p34
g3
NtRp35
(dp36
g10
(dp37
sg12
NsS'parent'
p38
g30
sS'point'
p39
I78
sbag1
(g34
g3
NtRp40
(dp41
g10
g37
sg12
Nsg38
g30
sg39
I13
sbasg38
g26
sbag1
(g34
g3
NtRp42
(dp43
g10
g37
sg12
Nsg38
g26
sg39
I51
sbasg38
g22
sbag1
(g34
g3
NtRp44
(dp45
g10
g37
sg12
Nsg38
g22
sg39
I95
sbasg38
g18
sbag1
(g7
g3
NtRp46
(dp47
g10
(dp48
sg12
(lp49
g1
(g7
g3
NtRp50
(dp51
g10
(dp52
sg12
(lp53
g1
(g7
g3
NtRp54
(dp55
g10
(dp56
sg12
(lp57
g1
(g7
g3
NtRp58
(dp59
g10
(dp60
sg12
(lp61
g1
(g34
g3
NtRp62
(dp63
g10
g37
sg12
Nsg38
g58
sg39
I85
sbag1
(g7
g3
NtRp64
(dp65
g10
(dp66
sg12
(lp67
g1
(g7
g3
NtRp68
(dp69
g10
(dp70
sg12
(lp71
g1
(g34
g3
NtRp72
(dp73
g10
g37
sg12
Nsg38
g68
sg39
I93
sbag1
(g34
g3
NtRp74
(dp75
g10
g37
sg12
Nsg38
g68
sg39
I37
sbasg38
g64
sbag1
(g7
g3
NtRp76
(dp77
g10
(dp78
sg12
(lp79
g1
(g34
g3
NtRp80
(dp81
g10
g37
sg12
Nsg38
g76
sg39
I40
sbag1
(g7
g3
NtRp82
(dp83
g10
(dp84
sg12
(lp85
g1
(g7
g3
NtRp86
(dp87
g10
(dp88
sg12
(lp89
g1
(g34
g3
NtRp90
(dp91
g10
g37
sg12
Nsg38
g86
sg39
I24
sbag1
(g7
g3
NtRp92
(dp93
g10
(dp94
sg12
(lp95
g1
(g34
g3
NtRp96
(dp97
g10
g37
sg12
Nsg38
g92
sg39
I38
sbag1
(g34
g3
NtRp98
(dp99
g10
g37
sg12
Nsg38
g92
sg39
I29
sbasg38
g86
sbasg38
g82
sbag1
(g34
g3
NtRp100
(dp101
g10
g37
sg12
Nsg38
g82
sg39
I49
sbasg38
g76
sbasg38
g64
sbasg38
g58
sbasg38
g54
sbag1
(g34
g3
NtRp102
(dp103
g10
g37
sg12
Nsg38
g54
sg39
I75
sbasg38
g50
sbag1
(g7
g3
NtRp104
(dp105
g10
(dp106
sg12
(lp107
g1
(g34
g3
NtRp108
(dp109
g10
g37
sg12
Nsg38
g104
sg39
I47
sbag1
(g7
g3
NtRp110
(dp111
g10
(dp112
sg12
(lp113
g1
(g7
g3
NtRp114
(dp115
g10
(dp116
sg12
(lp117
g1
(g34
g3
NtRp118
(dp119
g10
g37
sg12
Nsg38
g114
sg39
I44
sbag1
(g34
g3
NtRp120
(dp121
g10
g37
sg12
Nsg38
g114
sg39
I15
sbasg38
g110
sbag1
(g34
g3
NtRp122
(dp123
g10
g37
sg12
Nsg38
g110
sg39
I14
sbasg38
g104
sbasg38
g50
sbasg38
g46
sbag1
(g7
g3
NtRp124
(dp125
g10
(dp126
sg12
(lp127
g1
(g34
g3
NtRp128
(dp129
g10
g37
sg12
Nsg38
g124
sg39
I92
sbag1
(g34
g3
NtRp130
(dp131
g10
g37
sg12
Nsg38
g124
sg39
I69
sbasg38
g46
sbasg38
g18
sbasg38
g14
sbag1
(g7
g3
NtRp132
(dp133
g10
(dp134
sg12
(lp135
g1
(g34
g3
NtRp136
(dp137
g10
g37
sg12
Nsg38
g132
sg39
I82
sbag1
(g7
g3
NtRp138
(dp139
g10
(dp140
sg12
(lp141
g1
(g7
g3
NtRp142
(dp143
g10
(dp144
sg12
(lp145
g1
(g7
g3
NtRp146
(dp147
g10
(dp148
sg12
(lp149
g1
(g7
g3
NtRp150
(dp151
g10
(dp152
sg12
(lp153
g1
(g7
g3
NtRp154
(dp155
g10
(dp156
sg12
(lp157
g1
(g7
g3
NtRp158
(dp159
g10
(dp160
sg12
(lp161
g1
(g34
g3
NtRp162
(dp163
g10
g37
sg12
Nsg38
g158
sg39
I86
sbag1
(g7
g3
NtRp164
(dp165
g10
(dp166
sg12
(lp167
g1
(g7
g3
NtRp168
(dp169
g10
(dp170
sg12
(lp171
g1
(g7
g3
NtRp172
(dp173
g10
(dp174
sg12
(lp175
g1
(g7
g3
NtRp176
(dp177
g10
(dp178
sg12
(lp179
g1
(g34
g3
NtRp180
(dp181
g10
g37
sg12
Nsg38
g176
sg39
I11
sbag1
(g34
g3
NtRp182
(dp183
g10
g37
sg12
Nsg38
g176
sg39
I56
sbasg38
g172
sbag1
(g7
g3
NtRp184
(dp185
g10
(dp186
sg12
(lp187
g1
(g34
g3
NtRp188
(dp189
g10
g37
sg12
Nsg38
g184
sg39
I21
sbag1
(g34
g3
NtRp190
(dp191
g10
g37
sg12
Nsg38
g184
sg39
I84
sbasg38
g172
sbasg38
g168
sbag1
(g7
g3
NtRp192
(dp193
g10
(dp194
sg12
(lp195
g1
(g7
g3
NtRp196
(dp197
g10
(dp198
sg12
(lp199
g1
(g7
g3
NtRp200
(dp201
g10
(dp202
sg12
(lp203
g1
(g7
g3
NtRp204
(dp205
g10
(dp206
sg12
(lp207
g1
(g34
g3
NtRp208
(dp209
g10
g37
sg12
Nsg38
g204
sg39
I76
sbag1
(g34
g3
NtRp210
(dp211
g10
g37
sg12
Nsg38
g204
sg39
I31
sbasg38
g200
sbag1
(g7
g3
NtRp212
(dp213
g10
(dp214
sg12
(lp215
g1
(g7
g3
NtRp216
(dp217
g10
(dp218
sg12
(lp219
g1
(g34
g3
NtRp220
(dp221
g10
g37
sg12
Nsg38
g216
sg39
I91
sbag1
(g34
g3
NtRp222
(dp223
g10
g37
sg12
Nsg38
g216
sg39
I35
sbasg38
g212
sbag1
(g7
g3
NtRp224
(dp225
g10
(dp226
sg12
(lp227
g1
(g34
g3
NtRp228
(dp229
g10
g37
sg12
Nsg38
g224
sg39
I54
sbag1
(g7
g3
NtRp230
(dp231
g10
(dp232
sg12
(lp233
g1
(g34
g3
NtRp234
(dp235
g10
g37
sg12
Nsg38
g230
sg39
I16
sbag1
(g7
g3
NtRp236
(dp237
g10
(dp238
sg12
(lp239
g1
(g7
g3
NtRp240
(dp241
g10
(dp242
sg12
(lp243
g1
(g34
g3
NtRp244
(dp245
g10
g37
sg12
Nsg38
g240
sg39
I96
sbag1
(g34
g3
NtRp246
(dp247
g10
g37
sg12
Nsg38
g240
sg39
I80
sbasg38
g236
sbag1
(g34
g3
NtRp248
(dp249
g10
g37
sg12
Nsg38
g236
sg39
I41
sbasg38
g230
sbasg38
g224
sbasg38
g212
sbasg38
g200
sbasg38
g196
sbag1
(g34
g3
NtRp250
(dp251
g10
g37
sg12
Nsg38
g196
sg39
I55
sbasg38
g192
sbag1
(g7
g3
NtRp252
(dp253
g10
(dp254
sg12
(lp255
g1
(g34
g3
NtRp256
(dp257
g10
g37
sg12
Nsg38
g252
sg39
I20
sbag1
(g34
g3
NtRp258
(dp259
g10
g37
sg12
Nsg38
g252
sg39
I23
sbasg38
g192
sbasg38
g168
sbasg38
g164
sbag1
(g7
g3
NtRp260
(dp261
g10
(dp262
sg12
(lp263
g1
(g34
g3
NtRp264
(dp265
g10
g37
sg12
Nsg38
g260
sg39
I53
sbag1
(g7
g3
NtRp266
(dp267
g10
(dp268
sg12
(lp269
g1
(g34
g3
NtRp270
(dp271
g10
g37
sg12
Nsg38
g266
sg39
I39
sbag1
(g34
g3
NtRp272
(dp273
g10
g37
sg12
Nsg38
g266
sg39
I68
sbasg38
g260
sbasg38
g164
sbasg38
g158
sbasg38
g154
sbag1
(g7
g3
NtRp274
(dp275
g10
(dp276
sg12
(lp277
g1
(g34
g3
NtRp278
(dp279
g10
g37
sg12
Nsg38
g274
sg39
I87
sbag1
(g7
g3
NtRp280
(dp281
g10
(dp282
sg12
(lp283
g1
(g7
g3
NtRp284
(dp285
g10
(dp286
sg12
(lp287
g1
(g34
g3
NtRp288
(dp289
g10
g37
sg12
Nsg38
g284
sg39
I59
sbag1
(g34
g3
NtRp290
(dp291
g10
g37
sg12
Nsg38
g284
sg39
I73
sbasg38
g280
sbag1
(g34
g3
NtRp292
(dp293
g10
g37
sg12
Nsg38
g280
sg39
I77
sbasg38
g274
sbasg38
g154
sbasg38
g150
sbag1
(g7
g3
NtRp294
(dp295
g10
(dp296
sg12
(lp297
g1
(g34
g3
NtRp298
(dp299
g10
g37
sg12
Nsg38
g294
sg39
I60
sbag1
(g7
g3
NtRp300
(dp301
g10
(dp302
sg12
(lp303
g1
(g7
g3
NtRp304
(dp305
g10
(dp306
sg12
(lp307
g1
(g7
g3
NtRp308
(dp309
g10
(dp310
sg12
(lp311
g1
(g34
g3
NtRp312
(dp313
g10
g37
sg12
Nsg38
g308
sg39
I22
sbag1
(g34
g3
NtRp314
(dp315
g10
g37
sg12
Nsg38
g308
sg39
I0
sbasg38
g304
sbag1
(g7
g3
NtRp316
(dp317
g10
(dp318
sg12
(lp319
g1
(g7
g3
NtRp320
(dp321
g10
(dp322
sg12
(lp323
g1
(g7
g3
NtRp324
(dp325
g10
(dp326
sg12
(lp327
g1
(g7
g3
NtRp328
(dp329
g10
(dp330
sg12
(lp331
g1
(g34
g3
NtRp332
(dp333
g10
g37
sg12
Nsg38
g328
sg39
I48
sbag1
(g7
g3
NtRp334
(dp335
g10
(dp336
sg12
(lp337
g1
(g7
g3
NtRp338
(dp339
g10
(dp340
sg12
(lp341
g1
(g7
g3
NtRp342
(dp343
g10
(dp344
sg12
(lp345
g1
(g7
g3
NtRp346
(dp347
g10
(dp348
sg12
(lp349
g1
(g34
g3
NtRp350
(dp351
g10
g37
sg12
Nsg38
g346
sg39
I10
sbag1
(g34
g3
NtRp352
(dp353
g10
g37
sg12
Nsg38
g346
sg39
I64
sbasg38
g342
sbag1
(g34
g3
NtRp354
(dp355
g10
g37
sg12
Nsg38
g342
sg39
I65
sbasg38
g338
sbag1
(g34
g3
NtRp356
(dp357
g10
g37
sg12
Nsg38
g338
sg39
I45
sbasg38
g334
sbag1
(g7
g3
NtRp358
(dp359
g10
(dp360
sg12
(lp361
g1
(g34
g3
NtRp362
(dp363
g10
g37
sg12
Nsg38
g358
sg39
I42
sbag1
(g34
g3
NtRp364
(dp365
g10
g37
sg12
Nsg38
g358
sg39
I43
sbasg38
g334
sbasg38
g328
sbasg38
g324
sbag1
(g7
g3
NtRp366
(dp367
g10
(dp368
sg12
(lp369
g1
(g7
g3
NtRp370
(dp371
g10
(dp372
sg12
(lp373
g1
(g7
g3
NtRp374
(dp375
g10
(dp376
sg12
(lp377
g1
(g34
g3
NtRp378
(dp379
g10
g37
sg12
Nsg38
g374
sg39
I3
sbag1
(g7
g3
NtRp380
(dp381
g10
(dp382
sg12
(lp383
g1
(g34
g3
NtRp384
(dp385
g10
g37
sg12
Nsg38
g380
sg39
I72
sbag1
(g34
g3
NtRp386
(dp387
g10
g37
sg12
Nsg38
g380
sg39
I71
sbasg38
g374
sbasg38
g370
sbag1
(g7
g3
NtRp388
(dp389
g10
(dp390
sg12
(lp391
g1
(g7
g3
NtRp392
(dp393
g10
(dp394
sg12
(lp395
g1
(g34
g3
NtRp396
(dp397
g10
g37
sg12
Nsg38
g392
sg39
I61
sbag1
(g34
g3
NtRp398
(dp399
g10
g37
sg12
Nsg38
g392
sg39
I46
sbasg38
g388
sbag1
(g34
g3
NtRp400
(dp401
g10
g37
sg12
Nsg38
g388
sg39
I66
sbasg38
g370
sbasg38
g366
sbag1
(g34
g3
NtRp402
(dp403
g10
g37
sg12
Nsg38
g366
sg39
I94
sbasg38
g324
sbasg38
g320
sbag1
(g7
g3
NtRp404
(dp405
g10
(dp406
sg12
(lp407
g1
(g7
g3
NtRp408
(dp409
g10
(dp410
sg12
(lp411
g1
(g34
g3
NtRp412
(dp413
g10
g37
sg12
Nsg38
g408
sg39
I62
sbag1
(g7
g3
NtRp414
(dp415
g10
(dp416
sg12
(lp417
g1
(g7
g3
NtRp418
(dp419
g10
(dp420
sg12
(lp421
g1
(g7
g3
NtRp422
(dp423
g10
(dp424
sg12
(lp425
g1
(g34
g3
NtRp426
(dp427
g10
g37
sg12
Nsg38
g422
sg39
I27
sbag1
(g7
g3
NtRp428
(dp429
g10
(dp430
sg12
(lp431
g1
(g7
g3
NtRp432
(dp433
g10
(dp434
sg12
(lp435
g1
(g34
g3
NtRp436
(dp437
g10
g37
sg12
Nsg38
g432
sg39
I1
sbag1
(g7
g3
NtRp438
(dp439
g10
(dp440
sg12
(lp441
g1
(g34
g3
NtRp442
(dp443
g10
g37
sg12
Nsg38
g438
sg39
I6
sbag1
(g34
g3
NtRp444
(dp445
g10
g37
sg12
Nsg38
g438
sg39
I5
sbasg38
g432
sbasg38
g428
sbag1
(g7
g3
NtRp446
(dp447
g10
(dp448
sg12
(lp449
g1
(g34
g3
NtRp450
(dp451
g10
g37
sg12
Nsg38
g446
sg39
I17
sbag1
(g34
g3
NtRp452
(dp453
g10
g37
sg12
Nsg38
g446
sg39
I67
sbasg38
g428
sbasg38
g422
sbasg38
g418
sbag1
(g7
g3
NtRp454
(dp455
g10
(dp456
sg12
(lp457
g1
(g34
g3
NtRp458
(dp459
g10
g37
sg12
Nsg38
g454
sg39
I63
sbag1
(g34
g3
NtRp460
(dp461
g10
g37
sg12
Nsg38
g454
sg39
I19
sbasg38
g418
sbasg38
g414
sbag1
(g34
g3
NtRp462
(dp463
g10
g37
sg12
Nsg38
g414
sg39
I4
sbasg38
g408
sbasg38
g404
sbag1
(g7
g3
NtRp464
(dp465
g10
(dp466
sg12
(lp467
g1
(g34
g3
NtRp468
(dp469
g10
g37
sg12
Nsg38
g464
sg39
I26
sbag1
(g34
g3
NtRp470
(dp471
g10
g37
sg12
Nsg38
g464
sg39
I89
sbasg38
g404
sbasg38
g320
sbasg38
g316
sbag1
(g7
g3
NtRp472
(dp473
g10
(dp474
sg12
(lp475
g1
(g7
g3
NtRp476
(dp477
g10
(dp478
sg12
(lp479
g1
(g34
g3
NtRp480
(dp481
g10
g37
sg12
Nsg38
g476
sg39
I34
sbag1
(g7
g3
NtRp482
(dp483
g10
(dp484
sg12
(lp485
g1
(g34
g3
NtRp486
(dp487
g10
g37
sg12
Nsg38
g482
sg39
I81
sbag1
(g7
g3
NtRp488
(dp489
g10
(dp490
sg12
(lp491
g1
(g34
g3
NtRp492
(dp493
g10
g37
sg12
Nsg38
g488
sg39
I9
sbag1
(g7
g3
NtRp494
(dp495
g10
(dp496
sg12
(lp497
g1
(g34
g3
NtRp498
(dp499
g10
g37
sg12
Nsg38
g494
sg39
I90
sbag1
(g34
g3
NtRp500
(dp501
g10
g37
sg12
Nsg38
g494
sg39
I33
sbasg38
g488
sbasg38
g482
sbasg38
g476
sbasg38
g472
sbag1
(g7
g3
NtRp502
(dp503
g10
(dp504
sg12
(lp505
g1
(g34
g3
NtRp506
(dp507
g10
g37
sg12
Nsg38
g502
sg39
I28
sbag1
(g34
g3
NtRp508
(dp509
g10
g37
sg12
Nsg38
g502
sg39
I30
sbasg38
g472
sbasg38
g316
sbasg38
g304
sbasg38
g300
sbag1
(g34
g3
NtRp510
(dp511
g10
g37
sg12
Nsg38
g300
sg39
I52
sbasg38
g294
sbasg38
g150
sbasg38
g146
sbag1
(g7
g3
NtRp512
(dp513
g10
(dp514
sg12
(lp515
g1
(g34
g3
NtRp516
(dp517
g10
g37
sg12
Nsg38
g512
sg39
I25
sbag1
(g34
g3
NtRp518
(dp519
g10
g37
sg12
Nsg38
g512
sg39
I50
sbasg38
g146
sbasg38
g142
sbag1
(g7
g3
NtRp520
(dp521
g10
(dp522
sg12
(lp523
g1
(g7
g3
NtRp524
(dp525
g10
(dp526
sg12
(lp527
g1
(g34
g3
NtRp528
(dp529
g10
g37
sg12
Nsg38
g524
sg39
I57
sbag1
(g7
g3
NtRp530
(dp531
g10
(dp532
sg12
(lp533
g1
(g7
g3
NtRp534
(dp535
g10
(dp536
sg12
(lp537
g1
(g7
g3
NtRp538
(dp539
g10
(dp540
sg12
(lp541
g1
(g34
g3
NtRp542
(dp543
g10
g37
sg12
Nsg38
g538
sg39
I88
sbag1
(g34
g3
NtRp544
(dp545
g10
g37
sg12
Nsg38
g538
sg39
I70
sbasg38
g534
sbag1
(g7
g3
NtRp546
(dp547
g10
(dp548
sg12
(lp549
g1
(g34
g3
NtRp550
(dp551
g10
g37
sg12
Nsg38
g546
sg39
I2
sbag1
(g34
g3
NtRp552
(dp553
g10
g37
sg12
Nsg38
g546
sg39
I79
sbasg38
g534
sbasg38
g530
sbag1
(g34
g3
NtRp554
(dp555
g10
g37
sg12
Nsg38
g530
sg39
I32
sbasg38
g524
sbasg38
g520
sbag1
(g7
g3
NtRp556
(dp557
g10
(dp558
sg12
(lp559
g1
(g34
g3
NtRp560
(dp561
g10
g37
sg12
Nsg38
g556
sg39
I36
sbag1
(g7
g3
NtRp562
(dp563
g10
(dp564
sg12
(lp565
g1
(g7
g3
NtRp566
(dp567
g10
(dp568
sg12
(lp569
g1
(g34
g3
NtRp570
(dp571
g10
g37
sg12
Nsg38
g566
sg39
I12
sbag1
(g34
g3
NtRp572
(dp573
g10
g37
sg12
Nsg38
g566
sg39
I7
sbasg38
g562
sbag1
(g7
g3
NtRp574
(dp575
g10
(dp576
sg12
(lp577
g1
(g34
g3
NtRp578
(dp579
g10
g37
sg12
Nsg38
g574
sg39
I58
sbag1
(g34
g3
NtRp580
(dp581
g10
g37
sg12
Nsg38
g574
sg39
I8
sbasg38
g562
sbasg38
g556
sbasg38
g520
sbasg38
g142
sbasg38
g138
sbag1
(g7
g3
NtRp582
(dp583
g10
(dp584
sg12
(lp585
g1
(g34
g3
NtRp586
(dp587
g10
g37
sg12
Nsg38
g582
sg39
I83
sbag1
(g34
g3
NtRp588
(dp589
g10
g37
sg12
Nsg38
g582
sg39
I18
sbasg38
g138
sbasg38
g132
sbasg38
g14
sbasg38
g8
sbag1
(g34
g3
NtRp590
(dp591
g10
g37
sg12
Nsg38
g8
sg39
I74
sbasg38
NsbsS'parameters'
p592
(dp593
sb.