ccopy_reg
_reconstructor
p1
(ctrees.tree
Tree
p2
c__builtin__
object
p3
NtRp4
(dp5
S'root'
p6
g1
(ctrees.tree
TreeNode
p7
g3
NtRp8
(dp9
S'state'
p10
(dp11
sS'children'
p12
(lp13
g1
(g7
g3
NtRp14
(dp15
g10
(dp16
sg12
(lp17
g1
(g7
g3
NtRp18
(dp19
g10
(dp20
sg12
(lp21
g1
(g7
g3
NtRp22
(dp23
g10
(dp24
sg12
(lp25
g1
(g7
g3
NtRp26
(dp27
g10
(dp28
sg12
(lp29
g1
(g7
g3
NtRp30
(dp31
g10
(dp32
sg12
(lp33
g1
(ctrees.tree
TreeLeaf
p34
g3
NtRp35
(dp36
g10
(dp37
sg12
NsS'parent'
p38
g30
sS'point'
p39
I78
sbag1
(g34
g3
NtRp40
(dp41
g10
(dp42
sg12
Nsg38
g30
sg39
I13
sbasg38
g26
sbag1
(g34
g3
NtRp43
(dp44
g10
(dp45
sg12
Nsg38
g26
sg39
I51
sbasg38
g22
sbag1
(g34
g3
NtRp46
(dp47
g10
(dp48
sg12
Nsg38
g22
sg39
I95
sbasg38
g18
sbag1
(g7
g3
NtRp49
(dp50
g10
(dp51
sg12
(lp52
g1
(g7
g3
NtRp53
(dp54
g10
(dp55
sg12
(lp56
g1
(g7
g3
NtRp57
(dp58
g10
(dp59
sg12
(lp60
g1
(g7
g3
NtRp61
(dp62
g10
(dp63
sg12
(lp64
g1
(g34
g3
NtRp65
(dp66
g10
(dp67
sg12
Nsg38
g61
sg39
I85
sbag1
(g7
g3
NtRp68
(dp69
g10
(dp70
sg12
(lp71
g1
(g7
g3
NtRp72
(dp73
g10
(dp74
sg12
(lp75
g1
(g34
g3
NtRp76
(dp77
g10
(dp78
sg12
Nsg38
g72
sg39
I93
sbag1
(g34
g3
NtRp79
(dp80
g10
(dp81
sg12
Nsg38
g72
sg39
I37
sbasg38
g68
sbag1
(g7
g3
NtRp82
(dp83
g10
(dp84
sg12
(lp85
g1
(g34
g3
NtRp86
(dp87
g10
(dp88
sg12
Nsg38
g82
sg39
I40
sbag1
(g7
g3
NtRp89
(dp90
g10
(dp91
sg12
(lp92
g1
(g7
g3
NtRp93
(dp94
g10
(dp95
sg12
(lp96
g1
(g34
g3
NtRp97
(dp98
g10
(dp99
sg12
Nsg38
g93
sg39
I24
sbag1
(g7
g3
NtRp100
(dp101
g10
(dp102
sg12
(lp103
g1
(g34
g3
NtRp104
(dp105
g10
(dp106
sg12
Nsg38
g100
sg39
I38
sbag1
(g34
g3
NtRp107
(dp108
g10
(dp109
sg12
Nsg38
g100
sg39
I29
sbasg38
g93
sbasg38
g89
sbag1
(g34
g3
NtRp110
(dp111
g10
(dp112
sg12
Nsg38
g89
sg39
I49
sbasg38
g82
sbasg38
g68
sbasg38
g61
sbasg38
g57
sbag1
(g34
g3
NtRp113
(dp114
g10
(dp115
sg12
Nsg38
g57
sg39
I75
sbasg38
g53
sbag1
(g7
g3
NtRp116
(dp117
g10
(dp118
sg12
(lp119
g1
(g34
g3
NtRp120
(dp121
g10
(dp122
sg12
Nsg38
g116
sg39
I47
sbag1
(g7
g3
NtRp123
(dp124
g10
(dp125
sg12
(lp126
g1
(g7
g3
NtRp127
(dp128
g10
(dp129
sg12
(lp130
g1
(g34
g3
NtRp131
(dp132
g10
(dp133
sg12
Nsg38
g127
sg39
I44
sbag1
(g34
g3
NtRp134
(dp135
g10
(dp136
sg12
Nsg38
g127
sg39
I15
sbasg38
g123
sbag1
(g34
g3
NtRp137
(dp138
g10
(dp139
sg12
Nsg38
g123
sg39
I14
sbasg38
g116
sbasg38
g53
sbasg38
g49
sbag1
(g7
g3
NtRp140
(dp141
g10
(dp142
sg12
(lp143
g1
(g34
g3
NtRp144
(dp145
g10
(dp146
sg12
Nsg38
g140
sg39
I92
sbag1
(g34
g3
NtRp147
(dp148
g10
(dp149
sg12
Nsg38
g140
sg39
I69
sbasg38
g49
sbasg38
g18
sbasg38
g14
sbag1
(g7
g3
NtRp150
(dp151
g10
(dp152
sg12
(lp153
g1
(g34
g3
NtRp154
(dp155
g10
(dp156
sg12
Nsg38
g150
sg39
I82
sbag1
(g7
g3
NtRp157
(dp158
g10
(dp159
sg12
(lp160
g1
(g7
g3
NtRp161
(dp162
g10
(dp163
sg12
(lp164
g1
(g7
g3
NtRp165
(dp166
g10
(dp167
sg12
(lp168
g1
(g7
g3
NtRp169
(dp170
g10
(dp171
sg12
(lp172
g1
(g7
g3
NtRp173
(dp174
g10
(dp175
sg12
(lp176
g1
(g7
g3
NtRp177
(dp178
g10
(dp179
sg12
(lp180
g1
(g34
g3
NtRp181
(dp182
g10
(dp183
sg12
Nsg38
g177
sg39
I86
sbag1
(g7
g3
NtRp184
(dp185
g10
(dp186
sg12
(lp187
g1
(g7
g3
NtRp188
(dp189
g10
(dp190
sg12
(lp191
g1
(g7
g3
NtRp192
(dp193
g10
(dp194
sg12
(lp195
g1
(g7
g3
NtRp196
(dp197
g10
(dp198
sg12
(lp199
g1
(g34
g3
NtRp200
(dp201
g10
(dp202
sg12
Nsg38
g196
sg39
I11
sbag1
(g34
g3
NtRp203
(dp204
g10
(dp205
sg12
Nsg38
g196
sg39
I56
sbasg38
g192
sbag1
(g7
g3
NtRp206
(dp207
g10
(dp208
sg12
(lp209
g1
(g34
g3
NtRp210
(dp211
g10
(dp212
sg12
Nsg38
g206
sg39
I21
sbag1
(g34
g3
NtRp213
(dp214
g10
(dp215
sg12
Nsg38
g206
sg39
I84
sbasg38
g192
sbasg38
g188
sbag1
(g7
g3
NtRp216
(dp217
g10
(dp218
sg12
(lp219
g1
(g7
g3
NtRp220
(dp221
g10
(dp222
sg12
(lp223
g1
(g7
g3
NtRp224
(dp225
g10
(dp226
sg12
(lp227
g1
(g7
g3
NtRp228
(dp229
g10
(dp230
sg12
(lp231
g1
(g34
g3
NtRp232
(dp233
g10
(dp234
sg12
Nsg38
g228
sg39
I76
sbag1
(g34
g3
NtRp235
(dp236
g10
(dp237
sg12
Nsg38
g228
sg39
I31
sbasg38
g224
sbag1
(g7
g3
NtRp238
(dp239
g10
(dp240
sg12
(lp241
g1
(g7
g3
NtRp242
(dp243
g10
(dp244
sg12
(lp245
g1
(g34
g3
NtRp246
(dp247
g10
(dp248
sg12
Nsg38
g242
sg39
I91
sbag1
(g34
g3
NtRp249
(dp250
g10
(dp251
sg12
Nsg38
g242
sg39
I35
sbasg38
g238
sbag1
(g7
g3
NtRp252
(dp253
g10
(dp254
sg12
(lp255
g1
(g34
g3
NtRp256
(dp257
g10
(dp258
sg12
Nsg38
g252
sg39
I54
sbag1
(g7
g3
NtRp259
(dp260
g10
(dp261
sg12
(lp262
g1
(g34
g3
NtRp263
(dp264
g10
(dp265
sg12
Nsg38
g259
sg39
I16
sbag1
(g7
g3
NtRp266
(dp267
g10
(dp268
sg12
(lp269
g1
(g7
g3
NtRp270
(dp271
g10
(dp272
sg12
(lp273
g1
(g34
g3
NtRp274
(dp275
g10
(dp276
sg12
Nsg38
g270
sg39
I96
sbag1
(g34
g3
NtRp277
(dp278
g10
(dp279
sg12
Nsg38
g270
sg39
I80
sbasg38
g266
sbag1
(g34
g3
NtRp280
(dp281
g10
(dp282
sg12
Nsg38
g266
sg39
I41
sbasg38
g259
sbasg38
g252
sbasg38
g238
sbasg38
g224
sbasg38
g220
sbag1
(g34
g3
NtRp283
(dp284
g10
(dp285
sg12
Nsg38
g220
sg39
I55
sbasg38
g216
sbag1
(g7
g3
NtRp286
(dp287
g10
(dp288
sg12
(lp289
g1
(g34
g3
NtRp290
(dp291
g10
(dp292
sg12
Nsg38
g286
sg39
I20
sbag1
(g34
g3
NtRp293
(dp294
g10
(dp295
sg12
Nsg38
g286
sg39
I23
sbasg38
g216
sbasg38
g188
sbasg38
g184
sbag1
(g7
g3
NtRp296
(dp297
g10
(dp298
sg12
(lp299
g1
(g34
g3
NtRp300
(dp301
g10
(dp302
sg12
Nsg38
g296
sg39
I53
sbag1
(g7
g3
NtRp303
(dp304
g10
(dp305
sg12
(lp306
g1
(g34
g3
NtRp307
(dp308
g10
(dp309
sg12
Nsg38
g303
sg39
I39
sbag1
(g34
g3
NtRp310
(dp311
g10
(dp312
sg12
Nsg38
g303
sg39
I68
sbasg38
g296
sbasg38
g184
sbasg38
g177
sbasg38
g173
sbag1
(g7
g3
NtRp313
(dp314
g10
(dp315
sg12
(lp316
g1
(g34
g3
NtRp317
(dp318
g10
(dp319
sg12
Nsg38
g313
sg39
I87
sbag1
(g7
g3
NtRp320
(dp321
g10
(dp322
sg12
(lp323
g1
(g7
g3
NtRp324
(dp325
g10
(dp326
sg12
(lp327
g1
(g34
g3
NtRp328
(dp329
g10
(dp330
sg12
Nsg38
g324
sg39
I59
sbag1
(g34
g3
NtRp331
(dp332
g10
(dp333
sg12
Nsg38
g324
sg39
I73
sbasg38
g320
sbag1
(g34
g3
NtRp334
(dp335
g10
(dp336
sg12
Nsg38
g320
sg39
I77
sbasg38
g313
sbasg38
g173
sbasg38
g169
sbag1
(g7
g3
NtRp337
(dp338
g10
(dp339
sg12
(lp340
g1
(g34
g3
NtRp341
(dp342
g10
(dp343
sg12
Nsg38
g337
sg39
I60
sbag1
(g7
g3
NtRp344
(dp345
g10
(dp346
sg12
(lp347
g1
(g7
g3
NtRp348
(dp349
g10
(dp350
sg12
(lp351
g1
(g7
g3
NtRp352
(dp353
g10
(dp354
sg12
(lp355
g1
(g34
g3
NtRp356
(dp357
g10
(dp358
sg12
Nsg38
g352
sg39
I22
sbag1
(g34
g3
NtRp359
(dp360
g10
(dp361
sg12
Nsg38
g352
sg39
I0
sbasg38
g348
sbag1
(g7
g3
NtRp362
(dp363
g10
(dp364
sg12
(lp365
g1
(g7
g3
NtRp366
(dp367
g10
(dp368
sg12
(lp369
g1
(g7
g3
NtRp370
(dp371
g10
(dp372
sg12
(lp373
g1
(g7
g3
NtRp374
(dp375
g10
(dp376
sg12
(lp377
g1
(g34
g3
NtRp378
(dp379
g10
(dp380
sg12
Nsg38
g374
sg39
I48
sbag1
(g7
g3
NtRp381
(dp382
g10
(dp383
sg12
(lp384
g1
(g7
g3
NtRp385
(dp386
g10
(dp387
sg12
(lp388
g1
(g7
g3
NtRp389
(dp390
g10
(dp391
sg12
(lp392
g1
(g7
g3
NtRp393
(dp394
g10
(dp395
sg12
(lp396
g1
(g34
g3
NtRp397
(dp398
g10
(dp399
sg12
Nsg38
g393
sg39
I10
sbag1
(g34
g3
NtRp400
(dp401
g10
(dp402
sg12
Nsg38
g393
sg39
I64
sbasg38
g389
sbag1
(g34
g3
NtRp403
(dp404
g10
(dp405
sg12
Nsg38
g389
sg39
I65
sbasg38
g385
sbag1
(g34
g3
NtRp406
(dp407
g10
(dp408
sg12
Nsg38
g385
sg39
I45
sbasg38
g381
sbag1
(g7
g3
NtRp409
(dp410
g10
(dp411
sg12
(lp412
g1
(g34
g3
NtRp413
(dp414
g10
(dp415
sg12
Nsg38
g409
sg39
I42
sbag1
(g34
g3
NtRp416
(dp417
g10
(dp418
sg12
Nsg38
g409
sg39
I43
sbasg38
g381
sbasg38
g374
sbasg38
g370
sbag1
(g7
g3
NtRp419
(dp420
g10
(dp421
sg12
(lp422
g1
(g7
g3
NtRp423
(dp424
g10
(dp425
sg12
(lp426
g1
(g7
g3
NtRp427
(dp428
g10
(dp429
sg12
(lp430
g1
(g34
g3
NtRp431
(dp432
g10
(dp433
sg12
Nsg38
g427
sg39
I3
sbag1
(g7
g3
NtRp434
(dp435
g10
(dp436
sg12
(lp437
g1
(g34
g3
NtRp438
(dp439
g10
(dp440
sg12
Nsg38
g434
sg39
I72
sbag1
(g34
g3
NtRp441
(dp442
g10
(dp443
sg12
Nsg38
g434
sg39
I71
sbasg38
g427
sbasg38
g423
sbag1
(g7
g3
NtRp444
(dp445
g10
(dp446
sg12
(lp447
g1
(g7
g3
NtRp448
(dp449
g10
(dp450
sg12
(lp451
g1
(g34
g3
NtRp452
(dp453
g10
(dp454
sg12
Nsg38
g448
sg39
I61
sbag1
(g34
g3
NtRp455
(dp456
g10
(dp457
sg12
Nsg38
g448
sg39
I46
sbasg38
g444
sbag1
(g34
g3
NtRp458
(dp459
g10
(dp460
sg12
Nsg38
g444
sg39
I66
sbasg38
g423
sbasg38
g419
sbag1
(g34
g3
NtRp461
(dp462
g10
(dp463
sg12
Nsg38
g419
sg39
I94
sbasg38
g370
sbasg38
g366
sbag1
(g7
g3
NtRp464
(dp465
g10
(dp466
sg12
(lp467
g1
(g7
g3
NtRp468
(dp469
g10
(dp470
sg12
(lp471
g1
(g34
g3
NtRp472
(dp473
g10
(dp474
sg12
Nsg38
g468
sg39
I62
sbag1
(g7
g3
NtRp475
(dp476
g10
(dp477
sg12
(lp478
g1
(g7
g3
NtRp479
(dp480
g10
(dp481
sg12
(lp482
g1
(g7
g3
NtRp483
(dp484
g10
(dp485
sg12
(lp486
g1
(g34
g3
NtRp487
(dp488
g10
(dp489
sg12
Nsg38
g483
sg39
I27
sbag1
(g7
g3
NtRp490
(dp491
g10
(dp492
sg12
(lp493
g1
(g7
g3
NtRp494
(dp495
g10
(dp496
sg12
(lp497
g1
(g34
g3
NtRp498
(dp499
g10
(dp500
sg12
Nsg38
g494
sg39
I1
sbag1
(g7
g3
NtRp501
(dp502
g10
(dp503
sg12
(lp504
g1
(g34
g3
NtRp505
(dp506
g10
(dp507
sg12
Nsg38
g501
sg39
I6
sbag1
(g34
g3
NtRp508
(dp509
g10
(dp510
sg12
Nsg38
g501
sg39
I5
sbasg38
g494
sbasg38
g490
sbag1
(g7
g3
NtRp511
(dp512
g10
(dp513
sg12
(lp514
g1
(g34
g3
NtRp515
(dp516
g10
(dp517
sg12
Nsg38
g511
sg39
I17
sbag1
(g34
g3
NtRp518
(dp519
g10
(dp520
sg12
Nsg38
g511
sg39
I67
sbasg38
g490
sbasg38
g483
sbasg38
g479
sbag1
(g7
g3
NtRp521
(dp522
g10
(dp523
sg12
(lp524
g1
(g34
g3
NtRp525
(dp526
g10
(dp527
sg12
Nsg38
g521
sg39
I63
sbag1
(g34
g3
NtRp528
(dp529
g10
(dp530
sg12
Nsg38
g521
sg39
I19
sbasg38
g479
sbasg38
g475
sbag1
(g34
g3
NtRp531
(dp532
g10
(dp533
sg12
Nsg38
g475
sg39
I4
sbasg38
g468
sbasg38
g464
sbag1
(g7
g3
NtRp534
(dp535
g10
(dp536
sg12
(lp537
g1
(g34
g3
NtRp538
(dp539
g10
(dp540
sg12
Nsg38
g534
sg39
I26
sbag1
(g34
g3
NtRp541
(dp542
g10
(dp543
sg12
Nsg38
g534
sg39
I89
sbasg38
g464
sbasg38
g366
sbasg38
g362
sbag1
(g7
g3
NtRp544
(dp545
g10
(dp546
sg12
(lp547
g1
(g7
g3
NtRp548
(dp549
g10
(dp550
sg12
(lp551
g1
(g34
g3
NtRp552
(dp553
g10
(dp554
sg12
Nsg38
g548
sg39
I34
sbag1
(g7
g3
NtRp555
(dp556
g10
(dp557
sg12
(lp558
g1
(g34
g3
NtRp559
(dp560
g10
(dp561
sg12
Nsg38
g555
sg39
I81
sbag1
(g7
g3
NtRp562
(dp563
g10
(dp564
sg12
(lp565
g1
(g34
g3
NtRp566
(dp567
g10
(dp568
sg12
Nsg38
g562
sg39
I9
sbag1
(g7
g3
NtRp569
(dp570
g10
(dp571
sg12
(lp572
g1
(g34
g3
NtRp573
(dp574
g10
(dp575
sg12
Nsg38
g569
sg39
I90
sbag1
(g34
g3
NtRp576
(dp577
g10
(dp578
sg12
Nsg38
g569
sg39
I33
sbasg38
g562
sbasg38
g555
sbasg38
g548
sbasg38
g544
sbag1
(g7
g3
NtRp579
(dp580
g10
(dp581
sg12
(lp582
g1
(g34
g3
NtRp583
(dp584
g10
(dp585
sg12
Nsg38
g579
sg39
I28
sbag1
(g34
g3
NtRp586
(dp587
g10
(dp588
sg12
Nsg38
g579
sg39
I30
sbasg38
g544
sbasg38
g362
sbasg38
g348
sbasg38
g344
sbag1
(g34
g3
NtRp589
(dp590
g10
(dp591
sg12
Nsg38
g344
sg39
I52
sbasg38
g337
sbasg38
g169
sbasg38
g165
sbag1
(g7
g3
NtRp592
(dp593
g10
(dp594
sg12
(lp595
g1
(g34
g3
NtRp596
(dp597
g10
(dp598
sg12
Nsg38
g592
sg39
I25
sbag1
(g34
g3
NtRp599
(dp600
g10
(dp601
sg12
Nsg38
g592
sg39
I50
sbasg38
g165
sbasg38
g161
sbag1
(g7
g3
NtRp602
(dp603
g10
(dp604
sg12
(lp605
g1
(g7
g3
NtRp606
(dp607
g10
(dp608
sg12
(lp609
g1
(g34
g3
NtRp610
(dp611
g10
(dp612
sg12
Nsg38
g606
sg39
I57
sbag1
(g7
g3
NtRp613
(dp614
g10
(dp615
sg12
(lp616
g1
(g7
g3
NtRp617
(dp618
g10
(dp619
sg12
(lp620
g1
(g7
g3
NtRp621
(dp622
g10
(dp623
sg12
(lp624
g1
(g34
g3
NtRp625
(dp626
g10
(dp627
sg12
Nsg38
g621
sg39
I88
sbag1
(g34
g3
NtRp628
(dp629
g10
(dp630
sg12
Nsg38
g621
sg39
I70
sbasg38
g617
sbag1
(g7
g3
NtRp631
(dp632
g10
(dp633
sg12
(lp634
g1
(g34
g3
NtRp635
(dp636
g10
(dp637
sg12
Nsg38
g631
sg39
I2
sbag1
(g34
g3
NtRp638
(dp639
g10
(dp640
sg12
Nsg38
g631
sg39
I79
sbasg38
g617
sbasg38
g613
sbag1
(g34
g3
NtRp641
(dp642
g10
(dp643
sg12
Nsg38
g613
sg39
I32
sbasg38
g606
sbasg38
g602
sbag1
(g7
g3
NtRp644
(dp645
g10
(dp646
sg12
(lp647
g1
(g34
g3
NtRp648
(dp649
g10
(dp650
sg12
Nsg38
g644
sg39
I36
sbag1
(g7
g3
NtRp651
(dp652
g10
(dp653
sg12
(lp654
g1
(g7
g3
NtRp655
(dp656
g10
(dp657
sg12
(lp658
g1
(g34
g3
NtRp659
(dp660
g10
(dp661
sg12
Nsg38
g655
sg39
I12
sbag1
(g34
g3
NtRp662
(dp663
g10
(dp664
sg12
Nsg38
g655
sg39
I7
sbasg38
g651
sbag1
(g7
g3
NtRp665
(dp666
g10
(dp667
sg12
(lp668
g1
(g34
g3
NtRp669
(dp670
g10
(dp671
sg12
Nsg38
g665
sg39
I58
sbag1
(g34
g3
NtRp672
(dp673
g10
(dp674
sg12
Nsg38
g665
sg39
I8
sbasg38
g651
sbasg38
g644
sbasg38
g602
sbasg38
g161
sbasg38
g157
sbag1
(g7
g3
NtRp675
(dp676
g10
(dp677
sg12
(lp678
g1
(g34
g3
NtRp679
(dp680
g10
(dp681
sg12
Nsg38
g675
sg39
I83
sbag1
(g34
g3
NtRp682
(dp683
g10
(dp684
sg12
Nsg38
g675
sg39
I18
sbasg38
g157
sbasg38
g150
sbasg38
g14
sbasg38
g8
sbag1
(g34
g3
NtRp685
(dp686
g10
(dp687
sg12
Nsg38
g8
sg39
I74
sbasg38
NsbsS'parameters'
p688
(dp689
sS'constraints'
p690
(lp691
sb.