ccopy_reg
_reconstructor
p1
(ctrees.tree
Tree
p2
c__builtin__
object
p3
NtRp4
(dp5
S'root'
p6
g1
(ctrees.tree
TreeNode
p7
g3
NtRp8
(dp9
S'state'
p10
(dp11
sS'cache'
p12
(dp13
sS'children'
p14
(lp15
g1
(ctrees.tree
TreeLeaf
p16
g3
NtRp17
(dp18
g10
(dp19
sg12
(dp20
sg14
NsS'parent'
p21
g8
sS'point'
p22
I74
sbag1
(g7
g3
NtRp23
(dp24
g10
(dp25
sg12
(dp26
sg14
(lp27
g1
(g7
g3
NtRp28
(dp29
g10
(dp30
sg12
(dp31
sg14
(lp32
g1
(g7
g3
NtRp33
(dp34
g10
(dp35
sg12
(dp36
sg14
(lp37
g1
(g7
g3
NtRp38
(dp39
g10
(dp40
sg12
(dp41
sg14
(lp42
g1
(g16
g3
NtRp43
(dp44
g10
(dp45
sg12
(dp46
sg14
Nsg21
g38
sg22
I51
sbag1
(g7
g3
NtRp47
(dp48
g10
(dp49
sg12
(dp50
sg14
(lp51
g1
(g16
g3
NtRp52
(dp53
g10
(dp54
sg12
(dp55
sg14
Nsg21
g47
sg22
I78
sbag1
(g16
g3
NtRp56
(dp57
g10
(dp58
sg12
(dp59
sg14
Nsg21
g47
sg22
I13
sbasg21
g38
sbasg21
g33
sbag1
(g16
g3
NtRp60
(dp61
g10
(dp62
sg12
(dp63
sg14
Nsg21
g33
sg22
I95
sbasg21
g28
sbag1
(g7
g3
NtRp64
(dp65
g10
(dp66
sg12
(dp67
sg14
(lp68
g1
(g7
g3
NtRp69
(dp70
g10
(dp71
sg12
(dp72
sg14
(lp73
g1
(g7
g3
NtRp74
(dp75
g10
(dp76
sg12
(dp77
sg14
(lp78
g1
(g16
g3
NtRp79
(dp80
g10
(dp81
sg12
(dp82
sg14
Nsg21
g74
sg22
I15
sbag1
(g16
g3
NtRp83
(dp84
g10
(dp85
sg12
(dp86
sg14
Nsg21
g74
sg22
I44
sbasg21
g69
sbag1
(g7
g3
NtRp87
(dp88
g10
(dp89
sg12
(dp90
sg14
(lp91
g1
(g7
g3
NtRp92
(dp93
g10
(dp94
sg12
(dp95
sg14
(lp96
g1
(g7
g3
NtRp97
(dp98
g10
(dp99
sg12
(dp100
sg14
(lp101
g1
(g16
g3
NtRp102
(dp103
g10
(dp104
sg12
(dp105
sg14
Nsg21
g97
sg22
I93
sbag1
(g16
g3
NtRp106
(dp107
g10
(dp108
sg12
(dp109
sg14
Nsg21
g97
sg22
I43
sbasg21
g92
sbag1
(g7
g3
NtRp110
(dp111
g10
(dp112
sg12
(dp113
sg14
(lp114
g1
(g7
g3
NtRp115
(dp116
g10
(dp117
sg12
(dp118
sg14
(lp119
g1
(g7
g3
NtRp120
(dp121
g10
(dp122
sg12
(dp123
sg14
(lp124
g1
(g16
g3
NtRp125
(dp126
g10
(dp127
sg12
(dp128
sg14
Nsg21
g120
sg22
I24
sbag1
(g7
g3
NtRp129
(dp130
g10
(dp131
sg12
(dp132
sg14
(lp133
g1
(g16
g3
NtRp134
(dp135
g10
(dp136
sg12
(dp137
sg14
Nsg21
g129
sg22
I38
sbag1
(g16
g3
NtRp138
(dp139
g10
(dp140
sg12
(dp141
sg14
Nsg21
g129
sg22
I29
sbasg21
g120
sbasg21
g115
sbag1
(g16
g3
NtRp142
(dp143
g10
(dp144
sg12
(dp145
sg14
Nsg21
g115
sg22
I49
sbasg21
g110
sbag1
(g7
g3
NtRp146
(dp147
g10
(dp148
sg12
(dp149
sg14
(lp150
g1
(g16
g3
NtRp151
(dp152
g10
(dp153
sg12
(dp154
sg14
Nsg21
g146
sg22
I17
sbag1
(g7
g3
NtRp155
(dp156
g10
(dp157
sg12
(dp158
sg14
(lp159
g1
(g16
g3
NtRp160
(dp161
g10
(dp162
sg12
(dp163
sg14
Nsg21
g155
sg22
I71
sbag1
(g7
g3
NtRp164
(dp165
g10
(dp166
sg12
(dp167
sg14
(lp168
g1
(g16
g3
NtRp169
(dp170
g10
(dp171
sg12
(dp172
sg14
Nsg21
g164
sg22
I7
sbag1
(g16
g3
NtRp173
(dp174
g10
(dp175
sg12
(dp176
sg14
Nsg21
g164
sg22
I40
sbasg21
g155
sbasg21
g146
sbasg21
g110
sbasg21
g92
sbasg21
g87
sbag1
(g16
g3
NtRp177
(dp178
g10
(dp179
sg12
(dp180
sg14
Nsg21
g87
sg22
I85
sbasg21
g69
sbasg21
g64
sbag1
(g7
g3
NtRp181
(dp182
g10
(dp183
sg12
(dp184
sg14
(lp185
g1
(g16
g3
NtRp186
(dp187
g10
(dp188
sg12
(dp189
sg14
Nsg21
g181
sg22
I92
sbag1
(g16
g3
NtRp190
(dp191
g10
(dp192
sg12
(dp193
sg14
Nsg21
g181
sg22
I69
sbasg21
g64
sbasg21
g28
sbasg21
g23
sbag1
(g7
g3
NtRp194
(dp195
g10
(dp196
sg12
(dp197
sg14
(lp198
g1
(g16
g3
NtRp199
(dp200
g10
(dp201
sg12
(dp202
sg14
Nsg21
g194
sg22
I82
sbag1
(g7
g3
NtRp203
(dp204
g10
(dp205
sg12
(dp206
sg14
(lp207
g1
(g7
g3
NtRp208
(dp209
g10
(dp210
sg12
(dp211
sg14
(lp212
g1
(g7
g3
NtRp213
(dp214
g10
(dp215
sg12
(dp216
sg14
(lp217
g1
(g7
g3
NtRp218
(dp219
g10
(dp220
sg12
(dp221
sg14
(lp222
g1
(g7
g3
NtRp223
(dp224
g10
(dp225
sg12
(dp226
sg14
(lp227
g1
(g7
g3
NtRp228
(dp229
g10
(dp230
sg12
(dp231
sg14
(lp232
g1
(g7
g3
NtRp233
(dp234
g10
(dp235
sg12
(dp236
sg14
(lp237
g1
(g7
g3
NtRp238
(dp239
g10
(dp240
sg12
(dp241
sg14
(lp242
g1
(g16
g3
NtRp243
(dp244
g10
(dp245
sg12
(dp246
sg14
Nsg21
g238
sg22
I0
sbag1
(g16
g3
NtRp247
(dp248
g10
(dp249
sg12
(dp250
sg14
Nsg21
g238
sg22
I22
sbasg21
g233
sbag1
(g7
g3
NtRp251
(dp252
g10
(dp253
sg12
(dp254
sg14
(lp255
g1
(g7
g3
NtRp256
(dp257
g10
(dp258
sg12
(dp259
sg14
(lp260
g1
(g7
g3
NtRp261
(dp262
g10
(dp263
sg12
(dp264
sg14
(lp265
g1
(g7
g3
NtRp266
(dp267
g10
(dp268
sg12
(dp269
sg14
(lp270
g1
(g7
g3
NtRp271
(dp272
g10
(dp273
sg12
(dp274
sg14
(lp275
g1
(g16
g3
NtRp276
(dp277
g10
(dp278
sg12
(dp279
sg14
Nsg21
g271
sg22
I9
sbag1
(g7
g3
NtRp280
(dp281
g10
(dp282
sg12
(dp283
sg14
(lp284
g1
(g16
g3
NtRp285
(dp286
g10
(dp287
sg12
(dp288
sg14
Nsg21
g280
sg22
I90
sbag1
(g16
g3
NtRp289
(dp290
g10
(dp291
sg12
(dp292
sg14
Nsg21
g280
sg22
I33
sbasg21
g271
sbasg21
g266
sbag1
(g16
g3
NtRp293
(dp294
g10
(dp295
sg12
(dp296
sg14
Nsg21
g266
sg22
I81
sbasg21
g261
sbag1
(g16
g3
NtRp297
(dp298
g10
(dp299
sg12
(dp300
sg14
Nsg21
g261
sg22
I34
sbasg21
g256
sbag1
(g7
g3
NtRp301
(dp302
g10
(dp303
sg12
(dp304
sg14
(lp305
g1
(g16
g3
NtRp306
(dp307
g10
(dp308
sg12
(dp309
sg14
Nsg21
g301
sg22
I30
sbag1
(g16
g3
NtRp310
(dp311
g10
(dp312
sg12
(dp313
sg14
Nsg21
g301
sg22
I28
sbasg21
g256
sbasg21
g251
sbag1
(g7
g3
NtRp314
(dp315
g10
(dp316
sg12
(dp317
sg14
(lp318
g1
(g16
g3
NtRp319
(dp320
g10
(dp321
sg12
(dp322
sg14
Nsg21
g314
sg22
I47
sbag1
(g7
g3
NtRp323
(dp324
g10
(dp325
sg12
(dp326
sg14
(lp327
g1
(g7
g3
NtRp328
(dp329
g10
(dp330
sg12
(dp331
sg14
(lp332
g1
(g7
g3
NtRp333
(dp334
g10
(dp335
sg12
(dp336
sg14
(lp337
g1
(g16
g3
NtRp338
(dp339
g10
(dp340
sg12
(dp341
sg14
Nsg21
g333
sg22
I94
sbag1
(g7
g3
NtRp342
(dp343
g10
(dp344
sg12
(dp345
sg14
(lp346
g1
(g7
g3
NtRp347
(dp348
g10
(dp349
sg12
(dp350
sg14
(lp351
g1
(g16
g3
NtRp352
(dp353
g10
(dp354
sg12
(dp355
sg14
Nsg21
g347
sg22
I66
sbag1
(g16
g3
NtRp356
(dp357
g10
(dp358
sg12
(dp359
sg14
Nsg21
g347
sg22
I61
sbasg21
g342
sbag1
(g7
g3
NtRp360
(dp361
g10
(dp362
sg12
(dp363
sg14
(lp364
g1
(g16
g3
NtRp365
(dp366
g10
(dp367
sg12
(dp368
sg14
Nsg21
g360
sg22
I3
sbag1
(g16
g3
NtRp369
(dp370
g10
(dp371
sg12
(dp372
sg14
Nsg21
g360
sg22
I72
sbasg21
g342
sbasg21
g333
sbasg21
g328
sbag1
(g7
g3
NtRp373
(dp374
g10
(dp375
sg12
(dp376
sg14
(lp377
g1
(g7
g3
NtRp378
(dp379
g10
(dp380
sg12
(dp381
sg14
(lp382
g1
(g7
g3
NtRp383
(dp384
g10
(dp385
sg12
(dp386
sg14
(lp387
g1
(g16
g3
NtRp388
(dp389
g10
(dp390
sg12
(dp391
sg14
Nsg21
g383
sg22
I45
sbag1
(g7
g3
NtRp392
(dp393
g10
(dp394
sg12
(dp395
sg14
(lp396
g1
(g7
g3
NtRp397
(dp398
g10
(dp399
sg12
(dp400
sg14
(lp401
g1
(g16
g3
NtRp402
(dp403
g10
(dp404
sg12
(dp405
sg14
Nsg21
g397
sg22
I64
sbag1
(g16
g3
NtRp406
(dp407
g10
(dp408
sg12
(dp409
sg14
Nsg21
g397
sg22
I10
sbasg21
g392
sbag1
(g16
g3
NtRp410
(dp411
g10
(dp412
sg12
(dp413
sg14
Nsg21
g392
sg22
I65
sbasg21
g383
sbasg21
g378
sbag1
(g16
g3
NtRp414
(dp415
g10
(dp416
sg12
(dp417
sg14
Nsg21
g378
sg22
I42
sbasg21
g373
sbag1
(g16
g3
NtRp418
(dp419
g10
(dp420
sg12
(dp421
sg14
Nsg21
g373
sg22
I48
sbasg21
g328
sbasg21
g323
sbag1
(g7
g3
NtRp422
(dp423
g10
(dp424
sg12
(dp425
sg14
(lp426
g1
(g7
g3
NtRp427
(dp428
g10
(dp429
sg12
(dp430
sg14
(lp431
g1
(g7
g3
NtRp432
(dp433
g10
(dp434
sg12
(dp435
sg14
(lp436
g1
(g7
g3
NtRp437
(dp438
g10
(dp439
sg12
(dp440
sg14
(lp441
g1
(g7
g3
NtRp442
(dp443
g10
(dp444
sg12
(dp445
sg14
(lp446
g1
(g16
g3
NtRp447
(dp448
g10
(dp449
sg12
(dp450
sg14
Nsg21
g442
sg22
I19
sbag1
(g16
g3
NtRp451
(dp452
g10
(dp453
sg12
(dp454
sg14
Nsg21
g442
sg22
I63
sbasg21
g437
sbag1
(g7
g3
NtRp455
(dp456
g10
(dp457
sg12
(dp458
sg14
(lp459
g1
(g7
g3
NtRp460
(dp461
g10
(dp462
sg12
(dp463
sg14
(lp464
g1
(g7
g3
NtRp465
(dp466
g10
(dp467
sg12
(dp468
sg14
(lp469
g1
(g16
g3
NtRp470
(dp471
g10
(dp472
sg12
(dp473
sg14
Nsg21
g465
sg22
I1
sbag1
(g7
g3
NtRp474
(dp475
g10
(dp476
sg12
(dp477
sg14
(lp478
g1
(g16
g3
NtRp479
(dp480
g10
(dp481
sg12
(dp482
sg14
Nsg21
g474
sg22
I5
sbag1
(g16
g3
NtRp483
(dp484
g10
(dp485
sg12
(dp486
sg14
Nsg21
g474
sg22
I6
sbasg21
g465
sbasg21
g460
sbag1
(g16
g3
NtRp487
(dp488
g10
(dp489
sg12
(dp490
sg14
Nsg21
g460
sg22
I67
sbasg21
g455
sbag1
(g16
g3
NtRp491
(dp492
g10
(dp493
sg12
(dp494
sg14
Nsg21
g455
sg22
I27
sbasg21
g437
sbasg21
g432
sbag1
(g16
g3
NtRp495
(dp496
g10
(dp497
sg12
(dp498
sg14
Nsg21
g432
sg22
I4
sbasg21
g427
sbag1
(g16
g3
NtRp499
(dp500
g10
(dp501
sg12
(dp502
sg14
Nsg21
g427
sg22
I62
sbasg21
g422
sbag1
(g7
g3
NtRp503
(dp504
g10
(dp505
sg12
(dp506
sg14
(lp507
g1
(g16
g3
NtRp508
(dp509
g10
(dp510
sg12
(dp511
sg14
Nsg21
g503
sg22
I89
sbag1
(g16
g3
NtRp512
(dp513
g10
(dp514
sg12
(dp515
sg14
Nsg21
g503
sg22
I26
sbasg21
g422
sbasg21
g323
sbasg21
g314
sbasg21
g251
sbasg21
g233
sbasg21
g228
sbag1
(g16
g3
NtRp516
(dp517
g10
(dp518
sg12
(dp519
sg14
Nsg21
g228
sg22
I52
sbasg21
g223
sbag1
(g16
g3
NtRp520
(dp521
g10
(dp522
sg12
(dp523
sg14
Nsg21
g223
sg22
I60
sbasg21
g218
sbag1
(g7
g3
NtRp524
(dp525
g10
(dp526
sg12
(dp527
sg14
(lp528
g1
(g7
g3
NtRp529
(dp530
g10
(dp531
sg12
(dp532
sg14
(lp533
g1
(g7
g3
NtRp534
(dp535
g10
(dp536
sg12
(dp537
sg14
(lp538
g1
(g16
g3
NtRp539
(dp540
g10
(dp541
sg12
(dp542
sg14
Nsg21
g534
sg22
I77
sbag1
(g7
g3
NtRp543
(dp544
g10
(dp545
sg12
(dp546
sg14
(lp547
g1
(g16
g3
NtRp548
(dp549
g10
(dp550
sg12
(dp551
sg14
Nsg21
g543
sg22
I73
sbag1
(g16
g3
NtRp552
(dp553
g10
(dp554
sg12
(dp555
sg14
Nsg21
g543
sg22
I59
sbasg21
g534
sbasg21
g529
sbag1
(g16
g3
NtRp556
(dp557
g10
(dp558
sg12
(dp559
sg14
Nsg21
g529
sg22
I87
sbasg21
g524
sbag1
(g7
g3
NtRp560
(dp561
g10
(dp562
sg12
(dp563
sg14
(lp564
g1
(g7
g3
NtRp565
(dp566
g10
(dp567
sg12
(dp568
sg14
(lp569
g1
(g7
g3
NtRp570
(dp571
g10
(dp572
sg12
(dp573
sg14
(lp574
g1
(g7
g3
NtRp575
(dp576
g10
(dp577
sg12
(dp578
sg14
(lp579
g1
(g16
g3
NtRp580
(dp581
g10
(dp582
sg12
(dp583
sg14
Nsg21
g575
sg22
I84
sbag1
(g7
g3
NtRp584
(dp585
g10
(dp586
sg12
(dp587
sg14
(lp588
g1
(g16
g3
NtRp589
(dp590
g10
(dp591
sg12
(dp592
sg14
Nsg21
g584
sg22
I11
sbag1
(g16
g3
NtRp593
(dp594
g10
(dp595
sg12
(dp596
sg14
Nsg21
g584
sg22
I56
sbasg21
g575
sbasg21
g570
sbag1
(g7
g3
NtRp597
(dp598
g10
(dp599
sg12
(dp600
sg14
(lp601
g1
(g7
g3
NtRp602
(dp603
g10
(dp604
sg12
(dp605
sg14
(lp606
g1
(g16
g3
NtRp607
(dp608
g10
(dp609
sg12
(dp610
sg14
Nsg21
g602
sg22
I55
sbag1
(g7
g3
NtRp611
(dp612
g10
(dp613
sg12
(dp614
sg14
(lp615
g1
(g7
g3
NtRp616
(dp617
g10
(dp618
sg12
(dp619
sg14
(lp620
g1
(g7
g3
NtRp621
(dp622
g10
(dp623
sg12
(dp624
sg14
(lp625
g1
(g16
g3
NtRp626
(dp627
g10
(dp628
sg12
(dp629
sg14
Nsg21
g621
sg22
I91
sbag1
(g16
g3
NtRp630
(dp631
g10
(dp632
sg12
(dp633
sg14
Nsg21
g621
sg22
I35
sbasg21
g616
sbag1
(g7
g3
NtRp634
(dp635
g10
(dp636
sg12
(dp637
sg14
(lp638
g1
(g16
g3
NtRp639
(dp640
g10
(dp641
sg12
(dp642
sg14
Nsg21
g634
sg22
I54
sbag1
(g7
g3
NtRp643
(dp644
g10
(dp645
sg12
(dp646
sg14
(lp647
g1
(g7
g3
NtRp648
(dp649
g10
(dp650
sg12
(dp651
sg14
(lp652
g1
(g16
g3
NtRp653
(dp654
g10
(dp655
sg12
(dp656
sg14
Nsg21
g648
sg22
I41
sbag1
(g7
g3
NtRp657
(dp658
g10
(dp659
sg12
(dp660
sg14
(lp661
g1
(g16
g3
NtRp662
(dp663
g10
(dp664
sg12
(dp665
sg14
Nsg21
g657
sg22
I46
sbag1
(g16
g3
NtRp666
(dp667
g10
(dp668
sg12
(dp669
sg14
Nsg21
g657
sg22
I96
sbasg21
g648
sbasg21
g643
sbag1
(g16
g3
NtRp670
(dp671
g10
(dp672
sg12
(dp673
sg14
Nsg21
g643
sg22
I16
sbasg21
g634
sbasg21
g616
sbasg21
g611
sbag1
(g7
g3
NtRp674
(dp675
g10
(dp676
sg12
(dp677
sg14
(lp678
g1
(g16
g3
NtRp679
(dp680
g10
(dp681
sg12
(dp682
sg14
Nsg21
g674
sg22
I31
sbag1
(g16
g3
NtRp683
(dp684
g10
(dp685
sg12
(dp686
sg14
Nsg21
g674
sg22
I76
sbasg21
g611
sbasg21
g602
sbasg21
g597
sbag1
(g7
g3
NtRp687
(dp688
g10
(dp689
sg12
(dp690
sg14
(lp691
g1
(g16
g3
NtRp692
(dp693
g10
(dp694
sg12
(dp695
sg14
Nsg21
g687
sg22
I20
sbag1
(g16
g3
NtRp696
(dp697
g10
(dp698
sg12
(dp699
sg14
Nsg21
g687
sg22
I23
sbasg21
g597
sbasg21
g570
sbasg21
g565
sbag1
(g7
g3
NtRp700
(dp701
g10
(dp702
sg12
(dp703
sg14
(lp704
g1
(g16
g3
NtRp705
(dp706
g10
(dp707
sg12
(dp708
sg14
Nsg21
g700
sg22
I53
sbag1
(g7
g3
NtRp709
(dp710
g10
(dp711
sg12
(dp712
sg14
(lp713
g1
(g16
g3
NtRp714
(dp715
g10
(dp716
sg12
(dp717
sg14
Nsg21
g709
sg22
I39
sbag1
(g16
g3
NtRp718
(dp719
g10
(dp720
sg12
(dp721
sg14
Nsg21
g709
sg22
I68
sbasg21
g700
sbasg21
g565
sbasg21
g560
sbag1
(g16
g3
NtRp722
(dp723
g10
(dp724
sg12
(dp725
sg14
Nsg21
g560
sg22
I86
sbasg21
g524
sbasg21
g218
sbasg21
g213
sbag1
(g7
g3
NtRp726
(dp727
g10
(dp728
sg12
(dp729
sg14
(lp730
g1
(g16
g3
NtRp731
(dp732
g10
(dp733
sg12
(dp734
sg14
Nsg21
g726
sg22
I25
sbag1
(g16
g3
NtRp735
(dp736
g10
(dp737
sg12
(dp738
sg14
Nsg21
g726
sg22
I50
sbasg21
g213
sbasg21
g208
sbag1
(g7
g3
NtRp739
(dp740
g10
(dp741
sg12
(dp742
sg14
(lp743
g1
(g7
g3
NtRp744
(dp745
g10
(dp746
sg12
(dp747
sg14
(lp748
g1
(g16
g3
NtRp749
(dp750
g10
(dp751
sg12
(dp752
sg14
Nsg21
g744
sg22
I57
sbag1
(g7
g3
NtRp753
(dp754
g10
(dp755
sg12
(dp756
sg14
(lp757
g1
(g16
g3
NtRp758
(dp759
g10
(dp760
sg12
(dp761
sg14
Nsg21
g753
sg22
I32
sbag1
(g7
g3
NtRp762
(dp763
g10
(dp764
sg12
(dp765
sg14
(lp766
g1
(g7
g3
NtRp767
(dp768
g10
(dp769
sg12
(dp770
sg14
(lp771
g1
(g16
g3
NtRp772
(dp773
g10
(dp774
sg12
(dp775
sg14
Nsg21
g767
sg22
I70
sbag1
(g16
g3
NtRp776
(dp777
g10
(dp778
sg12
(dp779
sg14
Nsg21
g767
sg22
I88
sbasg21
g762
sbag1
(g7
g3
NtRp780
(dp781
g10
(dp782
sg12
(dp783
sg14
(lp784
g1
(g16
g3
NtRp785
(dp786
g10
(dp787
sg12
(dp788
sg14
Nsg21
g780
sg22
I79
sbag1
(g7
g3
NtRp789
(dp790
g10
(dp791
sg12
(dp792
sg14
(lp793
g1
(g16
g3
NtRp794
(dp795
g10
(dp796
sg12
(dp797
sg14
Nsg21
g789
sg22
I2
sbag1
(g16
g3
NtRp798
(dp799
g10
(dp800
sg12
(dp801
sg14
Nsg21
g789
sg22
I21
sbasg21
g780
sbasg21
g762
sbasg21
g753
sbasg21
g744
sbasg21
g739
sbag1
(g7
g3
NtRp802
(dp803
g10
(dp804
sg12
(dp805
sg14
(lp806
g1
(g7
g3
NtRp807
(dp808
g10
(dp809
sg12
(dp810
sg14
(lp811
g1
(g7
g3
NtRp812
(dp813
g10
(dp814
sg12
(dp815
sg14
(lp816
g1
(g16
g3
NtRp817
(dp818
g10
(dp819
sg12
(dp820
sg14
Nsg21
g812
sg22
I8
sbag1
(g16
g3
NtRp821
(dp822
g10
(dp823
sg12
(dp824
sg14
Nsg21
g812
sg22
I58
sbasg21
g807
sbag1
(g16
g3
NtRp825
(dp826
g10
(dp827
sg12
(dp828
sg14
Nsg21
g807
sg22
I12
sbasg21
g802
sbag1
(g16
g3
NtRp829
(dp830
g10
(dp831
sg12
(dp832
sg14
Nsg21
g802
sg22
I36
sbasg21
g739
sbasg21
g208
sbasg21
g203
sbag1
(g7
g3
NtRp833
(dp834
g10
(dp835
sg12
(dp836
sg14
(lp837
g1
(g16
g3
NtRp838
(dp839
g10
(dp840
sg12
(dp841
sg14
Nsg21
g833
sg22
I18
sbag1
(g16
g3
NtRp842
(dp843
g10
(dp844
sg12
(dp845
sg14
Nsg21
g833
sg22
I83
sbasg21
g203
sbasg21
g194
sbasg21
g23
sbasg21
g8
sbasg21
NsbsS'parameters'
p846
(dp847
sS'constraints'
p848
c__builtin__
set
p849
((ltRp850
sb.