ccopy_reg
_reconstructor
p1
(ctrees.tree
Tree
p2
c__builtin__
object
p3
NtRp4
(dp5
S'root'
p6
g1
(ctrees.tree
TreeNode
p7
g3
NtRp8
(dp9
S'state'
p10
(dp11
sS'cache'
p12
(dp13
(S'points'
p14
(t(ttp15
c__builtin__
frozenset
p16
((lp17
I0
aI1
aI2
aI3
aI4
aI5
aI6
aI7
aI8
aI9
aI10
aI11
aI12
aI13
aI15
aI16
aI17
aI18
aI19
aI20
aI21
aI22
aI23
aI24
aI25
aI26
aI27
aI28
aI29
aI30
aI31
aI32
aI33
aI34
aI35
aI36
aI38
aI39
aI40
aI41
aI42
aI43
aI44
aI45
aI46
aI47
aI48
aI49
aI50
aI51
aI52
aI53
aI54
aI55
aI56
aI57
aI58
aI59
aI60
aI61
aI62
aI63
aI64
aI65
aI66
aI67
aI68
aI69
aI70
aI71
aI72
aI73
aI74
aI76
aI77
aI78
aI79
aI81
aI82
aI83
aI84
aI85
aI86
aI87
aI88
aI89
aI90
aI91
aI92
aI93
aI94
aI95
aI96
atRp18
ssS'children'
p19
(lp20
g1
(ctrees.tree
TreeLeaf
p21
g3
NtRp22
(dp23
g10
(dp24
sg12
(dp25
sg19
NsS'parent'
p26
g8
sS'point'
p27
I74
sbag1
(g7
g3
NtRp28
(dp29
g10
(dp30
sg12
(dp31
(g14
(t(ttp32
g16
((lp33
I0
aI1
aI2
aI3
aI4
aI5
aI6
aI7
aI8
aI9
aI10
aI11
aI12
aI13
aI15
aI16
aI17
aI18
aI19
aI20
aI21
aI22
aI23
aI24
aI25
aI26
aI27
aI28
aI29
aI30
aI31
aI32
aI33
aI34
aI35
aI36
aI38
aI39
aI40
aI41
aI42
aI43
aI44
aI45
aI46
aI47
aI48
aI49
aI50
aI51
aI52
aI53
aI54
aI55
aI56
aI57
aI58
aI59
aI60
aI61
aI62
aI63
aI64
aI65
aI66
aI67
aI68
aI69
aI70
aI71
aI72
aI73
aI76
aI77
aI78
aI79
aI81
aI82
aI83
aI84
aI85
aI86
aI87
aI88
aI89
aI90
aI91
aI92
aI93
aI94
aI95
aI96
atRp34
ssg19
(lp35
g1
(g7
g3
NtRp36
(dp37
g10
(dp38
sg12
(dp39
(g14
(t(ttp40
g16
((lp41
I69
aI71
aI13
aI78
aI15
aI17
aI85
aI24
aI92
aI93
aI95
aI38
aI40
aI43
aI44
aI29
aI49
aI51
aI7
atRp42
ssg19
(lp43
g1
(g7
g3
NtRp44
(dp45
g10
(dp46
sg12
(dp47
(g14
(t(ttp48
g16
((lp49
I51
aI13
aI78
aI95
atRp50
ssg19
(lp51
g1
(g7
g3
NtRp52
(dp53
g10
(dp54
sg12
(dp55
(g14
(t(ttp56
g16
((lp57
I51
aI13
aI78
atRp58
ssg19
(lp59
g1
(g21
g3
NtRp60
(dp61
g10
(dp62
sg12
(dp63
sg19
Nsg26
g52
sg27
I51
sbag1
(g7
g3
NtRp64
(dp65
g10
(dp66
sg12
(dp67
(g14
(t(ttp68
g16
((lp69
I13
aI78
atRp70
ssg19
(lp71
g1
(g21
g3
NtRp72
(dp73
g10
(dp74
sg12
(dp75
sg19
Nsg26
g64
sg27
I78
sbag1
(g21
g3
NtRp76
(dp77
g10
(dp78
sg12
(dp79
sg19
Nsg26
g64
sg27
I13
sbasg26
g52
sbasg26
g44
sbag1
(g21
g3
NtRp80
(dp81
g10
(dp82
sg12
(dp83
sg19
Nsg26
g44
sg27
I95
sbasg26
g36
sbag1
(g7
g3
NtRp84
(dp85
g10
(dp86
sg12
(dp87
(g14
(t(ttp88
g16
((lp89
I17
aI69
aI38
aI71
aI40
aI43
aI44
aI93
aI15
aI49
aI85
aI24
aI7
aI92
aI29
atRp90
ssg19
(lp91
g1
(g7
g3
NtRp92
(dp93
g10
(dp94
sg12
(dp95
(g14
(t(ttp96
g16
((lp97
I17
aI38
aI71
aI40
aI43
aI44
aI93
aI15
aI49
aI85
aI24
aI7
aI29
atRp98
ssg19
(lp99
g1
(g7
g3
NtRp100
(dp101
g10
(dp102
sg12
(dp103
(g14
(t(ttp104
g16
((lp105
I44
aI15
atRp106
ssg19
(lp107
g1
(g21
g3
NtRp108
(dp109
g10
(dp110
sg12
(dp111
sg19
Nsg26
g100
sg27
I15
sbag1
(g21
g3
NtRp112
(dp113
g10
(dp114
sg12
(dp115
sg19
Nsg26
g100
sg27
I44
sbasg26
g92
sbag1
(g7
g3
NtRp116
(dp117
g10
(dp118
sg12
(dp119
(g14
(t(ttp120
g16
((lp121
I49
aI38
aI71
aI40
aI43
aI29
aI17
aI85
aI24
aI7
aI93
atRp122
ssg19
(lp123
g1
(g7
g3
NtRp124
(dp125
g10
(dp126
sg12
(dp127
(g14
(t(ttp128
g16
((lp129
I49
aI38
aI71
aI40
aI43
aI29
aI17
aI24
aI7
aI93
atRp130
ssg19
(lp131
g1
(g7
g3
NtRp132
(dp133
g10
(dp134
sg12
(dp135
(g14
(t(ttp136
g16
((lp137
I43
aI93
atRp138
ssg19
(lp139
g1
(g21
g3
NtRp140
(dp141
g10
(dp142
sg12
(dp143
sg19
Nsg26
g132
sg27
I93
sbag1
(g21
g3
NtRp144
(dp145
g10
(dp146
sg12
(dp147
sg19
Nsg26
g132
sg27
I43
sbasg26
g124
sbag1
(g7
g3
NtRp148
(dp149
g10
(dp150
sg12
(dp151
(g14
(t(ttp152
g16
((lp153
I38
aI17
aI40
aI71
aI49
aI24
aI7
aI29
atRp154
ssg19
(lp155
g1
(g7
g3
NtRp156
(dp157
g10
(dp158
sg12
(dp159
(g14
(t(ttp160
g16
((lp161
I24
aI49
aI29
aI38
atRp162
ssg19
(lp163
g1
(g7
g3
NtRp164
(dp165
g10
(dp166
sg12
(dp167
(g14
(t(ttp168
g16
((lp169
I24
aI29
aI38
atRp170
ssg19
(lp171
g1
(g21
g3
NtRp172
(dp173
g10
(dp174
sg12
(dp175
sg19
Nsg26
g164
sg27
I24
sbag1
(g7
g3
NtRp176
(dp177
g10
(dp178
sg12
(dp179
(g14
(t(ttp180
g16
((lp181
I29
aI38
atRp182
ssg19
(lp183
g1
(g21
g3
NtRp184
(dp185
g10
(dp186
sg12
(dp187
sg19
Nsg26
g176
sg27
I38
sbag1
(g21
g3
NtRp188
(dp189
g10
(dp190
sg12
(dp191
sg19
Nsg26
g176
sg27
I29
sbasg26
g164
sbasg26
g156
sbag1
(g21
g3
NtRp192
(dp193
g10
(dp194
sg12
(dp195
sg19
Nsg26
g156
sg27
I49
sbasg26
g148
sbag1
(g7
g3
NtRp196
(dp197
g10
(dp198
sg12
(dp199
(g14
(t(ttp200
g16
((lp201
I40
aI17
aI71
aI7
atRp202
ssg19
(lp203
g1
(g21
g3
NtRp204
(dp205
g10
(dp206
sg12
(dp207
sg19
Nsg26
g196
sg27
I17
sbag1
(g7
g3
NtRp208
(dp209
g10
(dp210
sg12
(dp211
(g14
(t(ttp212
g16
((lp213
I40
aI7
aI71
atRp214
ssg19
(lp215
g1
(g21
g3
NtRp216
(dp217
g10
(dp218
sg12
(dp219
sg19
Nsg26
g208
sg27
I71
sbag1
(g7
g3
NtRp220
(dp221
g10
(dp222
sg12
(dp223
(g14
(t(ttp224
g16
((lp225
I40
aI7
atRp226
ssg19
(lp227
g1
(g21
g3
NtRp228
(dp229
g10
(dp230
sg12
(dp231
sg19
Nsg26
g220
sg27
I7
sbag1
(g21
g3
NtRp232
(dp233
g10
(dp234
sg12
(dp235
sg19
Nsg26
g220
sg27
I40
sbasg26
g208
sbasg26
g196
sbasg26
g148
sbasg26
g124
sbasg26
g116
sbag1
(g21
g3
NtRp236
(dp237
g10
(dp238
sg12
(dp239
sg19
Nsg26
g116
sg27
I85
sbasg26
g92
sbasg26
g84
sbag1
(g7
g3
NtRp240
(dp241
g10
(dp242
sg12
(dp243
(g14
(t(ttp244
g16
((lp245
I92
aI69
atRp246
ssg19
(lp247
g1
(g21
g3
NtRp248
(dp249
g10
(dp250
sg12
(dp251
sg19
Nsg26
g240
sg27
I92
sbag1
(g21
g3
NtRp252
(dp253
g10
(dp254
sg12
(dp255
sg19
Nsg26
g240
sg27
I69
sbasg26
g84
sbasg26
g36
sbasg26
g28
sbag1
(g7
g3
NtRp256
(dp257
g10
(dp258
sg12
(dp259
(g14
(t(ttp260
g16
((lp261
I0
aI1
aI2
aI3
aI4
aI5
aI6
aI8
aI9
aI10
aI11
aI12
aI16
aI18
aI19
aI20
aI21
aI22
aI23
aI25
aI26
aI27
aI28
aI30
aI31
aI32
aI33
aI34
aI35
aI36
aI39
aI41
aI42
aI45
aI46
aI47
aI48
aI50
aI52
aI53
aI54
aI55
aI56
aI57
aI58
aI59
aI60
aI61
aI62
aI63
aI64
aI65
aI66
aI67
aI68
aI70
aI72
aI73
aI76
aI77
aI79
aI81
aI82
aI83
aI84
aI86
aI87
aI88
aI89
aI90
aI91
aI94
aI96
atRp262
ssg19
(lp263
g1
(g21
g3
NtRp264
(dp265
g10
(dp266
sg12
(dp267
sg19
Nsg26
g256
sg27
I82
sbag1
(g7
g3
NtRp268
(dp269
g10
(dp270
sg12
(dp271
(g14
(t(ttp272
g16
((lp273
I0
aI1
aI2
aI3
aI4
aI5
aI6
aI8
aI9
aI10
aI11
aI12
aI16
aI18
aI19
aI20
aI21
aI22
aI23
aI25
aI26
aI27
aI28
aI30
aI31
aI32
aI33
aI34
aI35
aI36
aI39
aI41
aI42
aI45
aI46
aI47
aI48
aI50
aI52
aI53
aI54
aI55
aI56
aI57
aI58
aI59
aI60
aI61
aI62
aI63
aI64
aI65
aI66
aI67
aI68
aI70
aI72
aI73
aI76
aI77
aI79
aI81
aI83
aI84
aI86
aI87
aI88
aI89
aI90
aI91
aI94
aI96
atRp274
ssg19
(lp275
g1
(g7
g3
NtRp276
(dp277
g10
(dp278
sg12
(dp279
(g14
(t(ttp280
g16
((lp281
I0
aI1
aI2
aI3
aI4
aI5
aI6
aI8
aI9
aI10
aI11
aI12
aI16
aI19
aI20
aI21
aI22
aI23
aI25
aI26
aI27
aI28
aI30
aI31
aI32
aI33
aI34
aI35
aI36
aI39
aI41
aI42
aI45
aI46
aI47
aI48
aI50
aI52
aI53
aI54
aI55
aI56
aI57
aI58
aI59
aI60
aI61
aI62
aI63
aI64
aI65
aI66
aI67
aI68
aI70
aI72
aI73
aI76
aI77
aI79
aI81
aI84
aI86
aI87
aI88
aI89
aI90
aI91
aI94
aI96
atRp282
ssg19
(lp283
g1
(g7
g3
NtRp284
(dp285
g10
(dp286
sg12
(dp287
(g14
(t(ttp288
g16
((lp289
I0
aI1
aI3
aI4
aI5
aI6
aI9
aI10
aI11
aI16
aI19
aI20
aI22
aI23
aI25
aI26
aI27
aI28
aI30
aI31
aI33
aI34
aI35
aI39
aI41
aI42
aI45
aI46
aI47
aI48
aI50
aI52
aI53
aI54
aI55
aI56
aI59
aI60
aI61
aI62
aI63
aI64
aI65
aI66
aI67
aI68
aI72
aI73
aI76
aI77
aI81
aI84
aI86
aI87
aI89
aI90
aI91
aI94
aI96
atRp290
ssg19
(lp291
g1
(g7
g3
NtRp292
(dp293
g10
(dp294
sg12
(dp295
(g14
(t(ttp296
g16
((lp297
I0
aI1
aI3
aI4
aI5
aI6
aI9
aI10
aI11
aI16
aI19
aI20
aI22
aI23
aI26
aI27
aI28
aI30
aI31
aI33
aI34
aI35
aI39
aI41
aI42
aI45
aI46
aI47
aI48
aI52
aI53
aI54
aI55
aI56
aI59
aI60
aI61
aI62
aI63
aI64
aI65
aI66
aI67
aI68
aI72
aI73
aI76
aI77
aI81
aI84
aI86
aI87
aI89
aI90
aI91
aI94
aI96
atRp298
ssg19
(lp299
g1
(g7
g3
NtRp300
(dp301
g10
(dp302
sg12
(dp303
(g14
(t(ttp304
g16
((lp305
I0
aI1
aI3
aI4
aI5
aI6
aI9
aI10
aI19
aI22
aI26
aI27
aI28
aI30
aI33
aI34
aI42
aI45
aI47
aI48
aI52
aI60
aI61
aI62
aI63
aI64
aI65
aI66
aI67
aI72
aI81
aI89
aI90
aI94
atRp306
ssg19
(lp307
g1
(g7
g3
NtRp308
(dp309
g10
(dp310
sg12
(dp311
(g14
(t(ttp312
g16
((lp313
I0
aI1
aI3
aI4
aI5
aI6
aI9
aI10
aI19
aI22
aI26
aI27
aI28
aI30
aI33
aI34
aI42
aI45
aI47
aI48
aI52
aI61
aI62
aI63
aI64
aI65
aI66
aI67
aI72
aI81
aI89
aI90
aI94
atRp314
ssg19
(lp315
g1
(g7
g3
NtRp316
(dp317
g10
(dp318
sg12
(dp319
(g14
(t(ttp320
g16
((lp321
I0
aI1
aI3
aI4
aI5
aI6
aI9
aI10
aI19
aI22
aI26
aI27
aI28
aI30
aI33
aI34
aI42
aI45
aI47
aI48
aI61
aI62
aI63
aI64
aI65
aI66
aI67
aI72
aI81
aI89
aI90
aI94
atRp322
ssg19
(lp323
g1
(g7
g3
NtRp324
(dp325
g10
(dp326
sg12
(dp327
(g14
(t(ttp328
g16
((lp329
I0
aI22
atRp330
ssg19
(lp331
g1
(g21
g3
NtRp332
(dp333
g10
(dp334
sg12
(dp335
sg19
Nsg26
g324
sg27
I0
sbag1
(g21
g3
NtRp336
(dp337
g10
(dp338
sg12
(dp339
sg19
Nsg26
g324
sg27
I22
sbasg26
g316
sbag1
(g7
g3
NtRp340
(dp341
g10
(dp342
sg12
(dp343
(g14
(t(ttp344
g16
((lp345
I64
aI65
aI66
aI3
aI4
aI5
aI6
aI1
aI72
aI9
aI10
aI81
aI67
aI89
aI90
aI27
aI28
aI26
aI30
aI33
aI34
aI42
aI45
aI47
aI48
aI19
aI94
aI61
aI62
aI63
atRp346
ssg19
(lp347
g1
(g7
g3
NtRp348
(dp349
g10
(dp350
sg12
(dp351
(g14
(t(ttp352
g16
((lp353
I81
aI34
aI33
aI9
aI90
aI28
aI30
atRp354
ssg19
(lp355
g1
(g7
g3
NtRp356
(dp357
g10
(dp358
sg12
(dp359
(g14
(t(ttp360
g16
((lp361
I9
aI90
aI34
aI81
aI33
atRp362
ssg19
(lp363
g1
(g7
g3
NtRp364
(dp365
g10
(dp366
sg12
(dp367
(g14
(t(ttp368
g16
((lp369
I9
aI90
aI81
aI33
atRp370
ssg19
(lp371
g1
(g7
g3
NtRp372
(dp373
g10
(dp374
sg12
(dp375
(g14
(t(ttp376
g16
((lp377
I9
aI90
aI33
atRp378
ssg19
(lp379
g1
(g21
g3
NtRp380
(dp381
g10
(dp382
sg12
(dp383
sg19
Nsg26
g372
sg27
I9
sbag1
(g7
g3
NtRp384
(dp385
g10
(dp386
sg12
(dp387
(g14
(t(ttp388
g16
((lp389
I33
aI90
atRp390
ssg19
(lp391
g1
(g21
g3
NtRp392
(dp393
g10
(dp394
sg12
(dp395
sg19
Nsg26
g384
sg27
I90
sbag1
(g21
g3
NtRp396
(dp397
g10
(dp398
sg12
(dp399
sg19
Nsg26
g384
sg27
I33
sbasg26
g372
sbasg26
g364
sbag1
(g21
g3
NtRp400
(dp401
g10
(dp402
sg12
(dp403
sg19
Nsg26
g364
sg27
I81
sbasg26
g356
sbag1
(g21
g3
NtRp404
(dp405
g10
(dp406
sg12
(dp407
sg19
Nsg26
g356
sg27
I34
sbasg26
g348
sbag1
(g7
g3
NtRp408
(dp409
g10
(dp410
sg12
(dp411
(g14
(t(ttp412
g16
((lp413
I28
aI30
atRp414
ssg19
(lp415
g1
(g21
g3
NtRp416
(dp417
g10
(dp418
sg12
(dp419
sg19
Nsg26
g408
sg27
I30
sbag1
(g21
g3
NtRp420
(dp421
g10
(dp422
sg12
(dp423
sg19
Nsg26
g408
sg27
I28
sbasg26
g348
sbasg26
g340
sbag1
(g7
g3
NtRp424
(dp425
g10
(dp426
sg12
(dp427
(g14
(t(ttp428
g16
((lp429
I64
aI65
aI66
aI3
aI4
aI5
aI6
aI1
aI72
aI10
aI67
aI89
aI26
aI27
aI94
aI42
aI45
aI47
aI48
aI19
aI61
aI62
aI63
atRp430
ssg19
(lp431
g1
(g21
g3
NtRp432
(dp433
g10
(dp434
sg12
(dp435
sg19
Nsg26
g424
sg27
I47
sbag1
(g7
g3
NtRp436
(dp437
g10
(dp438
sg12
(dp439
(g14
(t(ttp440
g16
((lp441
I64
aI65
aI66
aI3
aI4
aI5
aI6
aI1
aI72
aI10
aI67
aI89
aI26
aI27
aI94
aI42
aI45
aI48
aI19
aI61
aI62
aI63
atRp442
ssg19
(lp443
g1
(g7
g3
NtRp444
(dp445
g10
(dp446
sg12
(dp447
(g14
(t(ttp448
g16
((lp449
I64
aI65
aI66
aI3
aI72
aI10
aI45
aI48
aI42
aI61
aI94
atRp450
ssg19
(lp451
g1
(g7
g3
NtRp452
(dp453
g10
(dp454
sg12
(dp455
(g14
(t(ttp456
g16
((lp457
I72
aI66
aI3
aI61
aI94
atRp458
ssg19
(lp459
g1
(g21
g3
NtRp460
(dp461
g10
(dp462
sg12
(dp463
sg19
Nsg26
g452
sg27
I94
sbag1
(g7
g3
NtRp464
(dp465
g10
(dp466
sg12
(dp467
(g14
(t(ttp468
g16
((lp469
I72
aI66
aI3
aI61
atRp470
ssg19
(lp471
g1
(g7
g3
NtRp472
(dp473
g10
(dp474
sg12
(dp475
(g14
(t(ttp476
g16
((lp477
I66
aI61
atRp478
ssg19
(lp479
g1
(g21
g3
NtRp480
(dp481
g10
(dp482
sg12
(dp483
sg19
Nsg26
g472
sg27
I66
sbag1
(g21
g3
NtRp484
(dp485
g10
(dp486
sg12
(dp487
sg19
Nsg26
g472
sg27
I61
sbasg26
g464
sbag1
(g7
g3
NtRp488
(dp489
g10
(dp490
sg12
(dp491
(g14
(t(ttp492
g16
((lp493
I72
aI3
atRp494
ssg19
(lp495
g1
(g21
g3
NtRp496
(dp497
g10
(dp498
sg12
(dp499
sg19
Nsg26
g488
sg27
I3
sbag1
(g21
g3
NtRp500
(dp501
g10
(dp502
sg12
(dp503
sg19
Nsg26
g488
sg27
I72
sbasg26
g464
sbasg26
g452
sbasg26
g444
sbag1
(g7
g3
NtRp504
(dp505
g10
(dp506
sg12
(dp507
(g14
(t(ttp508
g16
((lp509
I64
aI65
aI48
aI10
aI42
aI45
atRp510
ssg19
(lp511
g1
(g7
g3
NtRp512
(dp513
g10
(dp514
sg12
(dp515
(g14
(t(ttp516
g16
((lp517
I64
aI65
aI10
aI42
aI45
atRp518
ssg19
(lp519
g1
(g7
g3
NtRp520
(dp521
g10
(dp522
sg12
(dp523
(g14
(t(ttp524
g16
((lp525
I64
aI65
aI10
aI45
atRp526
ssg19
(lp527
g1
(g21
g3
NtRp528
(dp529
g10
(dp530
sg12
(dp531
sg19
Nsg26
g520
sg27
I45
sbag1
(g7
g3
NtRp532
(dp533
g10
(dp534
sg12
(dp535
(g14
(t(ttp536
g16
((lp537
I64
aI65
aI10
atRp538
ssg19
(lp539
g1
(g7
g3
NtRp540
(dp541
g10
(dp542
sg12
(dp543
(g14
(t(ttp544
g16
((lp545
I64
aI10
atRp546
ssg19
(lp547
g1
(g21
g3
NtRp548
(dp549
g10
(dp550
sg12
(dp551
sg19
Nsg26
g540
sg27
I64
sbag1
(g21
g3
NtRp552
(dp553
g10
(dp554
sg12
(dp555
sg19
Nsg26
g540
sg27
I10
sbasg26
g532
sbag1
(g21
g3
NtRp556
(dp557
g10
(dp558
sg12
(dp559
sg19
Nsg26
g532
sg27
I65
sbasg26
g520
sbasg26
g512
sbag1
(g21
g3
NtRp560
(dp561
g10
(dp562
sg12
(dp563
sg19
Nsg26
g512
sg27
I42
sbasg26
g504
sbag1
(g21
g3
NtRp564
(dp565
g10
(dp566
sg12
(dp567
sg19
Nsg26
g504
sg27
I48
sbasg26
g444
sbasg26
g436
sbag1
(g7
g3
NtRp568
(dp569
g10
(dp570
sg12
(dp571
(g14
(t(ttp572
g16
((lp573
I1
aI67
aI4
aI5
aI6
aI19
aI89
aI26
aI27
aI62
aI63
atRp574
ssg19
(lp575
g1
(g7
g3
NtRp576
(dp577
g10
(dp578
sg12
(dp579
(g14
(t(ttp580
g16
((lp581
I1
aI67
aI4
aI5
aI6
aI19
aI27
aI62
aI63
atRp582
ssg19
(lp583
g1
(g7
g3
NtRp584
(dp585
g10
(dp586
sg12
(dp587
(g14
(t(ttp588
g16
((lp589
I1
aI67
aI19
aI4
aI5
aI6
aI27
aI63
atRp590
ssg19
(lp591
g1
(g7
g3
NtRp592
(dp593
g10
(dp594
sg12
(dp595
(g14
(t(ttp596
g16
((lp597
I1
aI67
aI19
aI5
aI6
aI27
aI63
atRp598
ssg19
(lp599
g1
(g7
g3
NtRp600
(dp601
g10
(dp602
sg12
(dp603
(g14
(t(ttp604
g16
((lp605
I19
aI63
atRp606
ssg19
(lp607
g1
(g21
g3
NtRp608
(dp609
g10
(dp610
sg12
(dp611
sg19
Nsg26
g600
sg27
I19
sbag1
(g21
g3
NtRp612
(dp613
g10
(dp614
sg12
(dp615
sg19
Nsg26
g600
sg27
I63
sbasg26
g592
sbag1
(g7
g3
NtRp616
(dp617
g10
(dp618
sg12
(dp619
(g14
(t(ttp620
g16
((lp621
I27
aI1
aI67
aI5
aI6
atRp622
ssg19
(lp623
g1
(g7
g3
NtRp624
(dp625
g10
(dp626
sg12
(dp627
(g14
(t(ttp628
g16
((lp629
I1
aI67
aI5
aI6
atRp630
ssg19
(lp631
g1
(g7
g3
NtRp632
(dp633
g10
(dp634
sg12
(dp635
(g14
(t(ttp636
g16
((lp637
I1
aI5
aI6
atRp638
ssg19
(lp639
g1
(g21
g3
NtRp640
(dp641
g10
(dp642
sg12
(dp643
sg19
Nsg26
g632
sg27
I1
sbag1
(g7
g3
NtRp644
(dp645
g10
(dp646
sg12
(dp647
(g14
(t(ttp648
g16
((lp649
I5
aI6
atRp650
ssg19
(lp651
g1
(g21
g3
NtRp652
(dp653
g10
(dp654
sg12
(dp655
sg19
Nsg26
g644
sg27
I5
sbag1
(g21
g3
NtRp656
(dp657
g10
(dp658
sg12
(dp659
sg19
Nsg26
g644
sg27
I6
sbasg26
g632
sbasg26
g624
sbag1
(g21
g3
NtRp660
(dp661
g10
(dp662
sg12
(dp663
sg19
Nsg26
g624
sg27
I67
sbasg26
g616
sbag1
(g21
g3
NtRp664
(dp665
g10
(dp666
sg12
(dp667
sg19
Nsg26
g616
sg27
I27
sbasg26
g592
sbasg26
g584
sbag1
(g21
g3
NtRp668
(dp669
g10
(dp670
sg12
(dp671
sg19
Nsg26
g584
sg27
I4
sbasg26
g576
sbag1
(g21
g3
NtRp672
(dp673
g10
(dp674
sg12
(dp675
sg19
Nsg26
g576
sg27
I62
sbasg26
g568
sbag1
(g7
g3
NtRp676
(dp677
g10
(dp678
sg12
(dp679
(g14
(t(ttp680
g16
((lp681
I89
aI26
atRp682
ssg19
(lp683
g1
(g21
g3
NtRp684
(dp685
g10
(dp686
sg12
(dp687
sg19
Nsg26
g676
sg27
I89
sbag1
(g21
g3
NtRp688
(dp689
g10
(dp690
sg12
(dp691
sg19
Nsg26
g676
sg27
I26
sbasg26
g568
sbasg26
g436
sbasg26
g424
sbasg26
g340
sbasg26
g316
sbasg26
g308
sbag1
(g21
g3
NtRp692
(dp693
g10
(dp694
sg12
(dp695
sg19
Nsg26
g308
sg27
I52
sbasg26
g300
sbag1
(g21
g3
NtRp696
(dp697
g10
(dp698
sg12
(dp699
sg19
Nsg26
g300
sg27
I60
sbasg26
g292
sbag1
(g7
g3
NtRp700
(dp701
g10
(dp702
sg12
(dp703
(g14
(t(ttp704
g16
((lp705
I68
aI73
aI11
aI76
aI77
aI16
aI56
aI84
aI86
aI87
aI91
aI31
aI96
aI35
aI39
aI41
aI46
aI53
aI54
aI55
aI23
aI20
aI59
atRp706
ssg19
(lp707
g1
(g7
g3
NtRp708
(dp709
g10
(dp710
sg12
(dp711
(g14
(t(ttp712
g16
((lp713
I73
aI59
aI77
aI87
atRp714
ssg19
(lp715
g1
(g7
g3
NtRp716
(dp717
g10
(dp718
sg12
(dp719
(g14
(t(ttp720
g16
((lp721
I73
aI59
aI77
atRp722
ssg19
(lp723
g1
(g21
g3
NtRp724
(dp725
g10
(dp726
sg12
(dp727
sg19
Nsg26
g716
sg27
I77
sbag1
(g7
g3
NtRp728
(dp729
g10
(dp730
sg12
(dp731
(g14
(t(ttp732
g16
((lp733
I73
aI59
atRp734
ssg19
(lp735
g1
(g21
g3
NtRp736
(dp737
g10
(dp738
sg12
(dp739
sg19
Nsg26
g728
sg27
I73
sbag1
(g21
g3
NtRp740
(dp741
g10
(dp742
sg12
(dp743
sg19
Nsg26
g728
sg27
I59
sbasg26
g716
sbasg26
g708
sbag1
(g21
g3
NtRp744
(dp745
g10
(dp746
sg12
(dp747
sg19
Nsg26
g708
sg27
I87
sbasg26
g700
sbag1
(g7
g3
NtRp748
(dp749
g10
(dp750
sg12
(dp751
(g14
(t(ttp752
g16
((lp753
I68
aI11
aI76
aI16
aI84
aI86
aI23
aI91
aI31
aI96
aI35
aI39
aI41
aI46
aI53
aI54
aI55
aI56
aI20
atRp754
ssg19
(lp755
g1
(g7
g3
NtRp756
(dp757
g10
(dp758
sg12
(dp759
(g14
(t(ttp760
g16
((lp761
I96
aI35
aI68
aI39
aI41
aI11
aI76
aI46
aI16
aI84
aI53
aI54
aI23
aI56
aI20
aI91
aI55
aI31
atRp762
ssg19
(lp763
g1
(g7
g3
NtRp764
(dp765
g10
(dp766
sg12
(dp767
(g14
(t(ttp768
g16
((lp769
I96
aI35
aI41
aI11
aI76
aI46
aI16
aI84
aI54
aI23
aI56
aI20
aI91
aI55
aI31
atRp770
ssg19
(lp771
g1
(g7
g3
NtRp772
(dp773
g10
(dp774
sg12
(dp775
(g14
(t(ttp776
g16
((lp777
I56
aI11
aI84
atRp778
ssg19
(lp779
g1
(g21
g3
NtRp780
(dp781
g10
(dp782
sg12
(dp783
sg19
Nsg26
g772
sg27
I84
sbag1
(g7
g3
NtRp784
(dp785
g10
(dp786
sg12
(dp787
(g14
(t(ttp788
g16
((lp789
I56
aI11
atRp790
ssg19
(lp791
g1
(g21
g3
NtRp792
(dp793
g10
(dp794
sg12
(dp795
sg19
Nsg26
g784
sg27
I11
sbag1
(g21
g3
NtRp796
(dp797
g10
(dp798
sg12
(dp799
sg19
Nsg26
g784
sg27
I56
sbasg26
g772
sbasg26
g764
sbag1
(g7
g3
NtRp800
(dp801
g10
(dp802
sg12
(dp803
(g14
(t(ttp804
g16
((lp805
I96
aI35
aI41
aI23
aI76
aI46
aI16
aI20
aI54
aI55
aI91
aI31
atRp806
ssg19
(lp807
g1
(g7
g3
NtRp808
(dp809
g10
(dp810
sg12
(dp811
(g14
(t(ttp812
g16
((lp813
I96
aI35
aI41
aI76
aI46
aI16
aI54
aI55
aI91
aI31
atRp814
ssg19
(lp815
g1
(g21
g3
NtRp816
(dp817
g10
(dp818
sg12
(dp819
sg19
Nsg26
g808
sg27
I55
sbag1
(g7
g3
NtRp820
(dp821
g10
(dp822
sg12
(dp823
(g14
(t(ttp824
g16
((lp825
I96
aI16
aI35
aI54
aI41
aI91
aI76
aI46
aI31
atRp826
ssg19
(lp827
g1
(g7
g3
NtRp828
(dp829
g10
(dp830
sg12
(dp831
(g14
(t(ttp832
g16
((lp833
I96
aI16
aI35
aI54
aI41
aI91
aI46
atRp834
ssg19
(lp835
g1
(g7
g3
NtRp836
(dp837
g10
(dp838
sg12
(dp839
(g14
(t(ttp840
g16
((lp841
I35
aI91
atRp842
ssg19
(lp843
g1
(g21
g3
NtRp844
(dp845
g10
(dp846
sg12
(dp847
sg19
Nsg26
g836
sg27
I91
sbag1
(g21
g3
NtRp848
(dp849
g10
(dp850
sg12
(dp851
sg19
Nsg26
g836
sg27
I35
sbasg26
g828
sbag1
(g7
g3
NtRp852
(dp853
g10
(dp854
sg12
(dp855
(g14
(t(ttp856
g16
((lp857
I96
aI41
aI46
aI54
aI16
atRp858
ssg19
(lp859
g1
(g21
g3
NtRp860
(dp861
g10
(dp862
sg12
(dp863
sg19
Nsg26
g852
sg27
I54
sbag1
(g7
g3
NtRp864
(dp865
g10
(dp866
sg12
(dp867
(g14
(t(ttp868
g16
((lp869
I96
aI41
aI46
aI16
atRp870
ssg19
(lp871
g1
(g7
g3
NtRp872
(dp873
g10
(dp874
sg12
(dp875
(g14
(t(ttp876
g16
((lp877
I96
aI41
aI46
atRp878
ssg19
(lp879
g1
(g21
g3
NtRp880
(dp881
g10
(dp882
sg12
(dp883
sg19
Nsg26
g872
sg27
I41
sbag1
(g7
g3
NtRp884
(dp885
g10
(dp886
sg12
(dp887
(g14
(t(ttp888
g16
((lp889
I96
aI46
atRp890
ssg19
(lp891
g1
(g21
g3
NtRp892
(dp893
g10
(dp894
sg12
(dp895
sg19
Nsg26
g884
sg27
I46
sbag1
(g21
g3
NtRp896
(dp897
g10
(dp898
sg12
(dp899
sg19
Nsg26
g884
sg27
I96
sbasg26
g872
sbasg26
g864
sbag1
(g21
g3
NtRp900
(dp901
g10
(dp902
sg12
(dp903
sg19
Nsg26
g864
sg27
I16
sbasg26
g852
sbasg26
g828
sbasg26
g820
sbag1
(g7
g3
NtRp904
(dp905
g10
(dp906
sg12
(dp907
(g14
(t(ttp908
g16
((lp909
I76
aI31
atRp910
ssg19
(lp911
g1
(g21
g3
NtRp912
(dp913
g10
(dp914
sg12
(dp915
sg19
Nsg26
g904
sg27
I31
sbag1
(g21
g3
NtRp916
(dp917
g10
(dp918
sg12
(dp919
sg19
Nsg26
g904
sg27
I76
sbasg26
g820
sbasg26
g808
sbasg26
g800
sbag1
(g7
g3
NtRp920
(dp921
g10
(dp922
sg12
(dp923
(g14
(t(ttp924
g16
((lp925
I20
aI23
atRp926
ssg19
(lp927
g1
(g21
g3
NtRp928
(dp929
g10
(dp930
sg12
(dp931
sg19
Nsg26
g920
sg27
I20
sbag1
(g21
g3
NtRp932
(dp933
g10
(dp934
sg12
(dp935
sg19
Nsg26
g920
sg27
I23
sbasg26
g800
sbasg26
g764
sbasg26
g756
sbag1
(g7
g3
NtRp936
(dp937
g10
(dp938
sg12
(dp939
(g14
(t(ttp940
g16
((lp941
I68
aI53
aI39
atRp942
ssg19
(lp943
g1
(g21
g3
NtRp944
(dp945
g10
(dp946
sg12
(dp947
sg19
Nsg26
g936
sg27
I53
sbag1
(g7
g3
NtRp948
(dp949
g10
(dp950
sg12
(dp951
(g14
(t(ttp952
g16
((lp953
I68
aI39
atRp954
ssg19
(lp955
g1
(g21
g3
NtRp956
(dp957
g10
(dp958
sg12
(dp959
sg19
Nsg26
g948
sg27
I39
sbag1
(g21
g3
NtRp960
(dp961
g10
(dp962
sg12
(dp963
sg19
Nsg26
g948
sg27
I68
sbasg26
g936
sbasg26
g756
sbasg26
g748
sbag1
(g21
g3
NtRp964
(dp965
g10
(dp966
sg12
(dp967
sg19
Nsg26
g748
sg27
I86
sbasg26
g700
sbasg26
g292
sbasg26
g284
sbag1
(g7
g3
NtRp968
(dp969
g10
(dp970
sg12
(dp971
(g14
(t(ttp972
g16
((lp973
I25
aI50
atRp974
ssg19
(lp975
g1
(g21
g3
NtRp976
(dp977
g10
(dp978
sg12
(dp979
sg19
Nsg26
g968
sg27
I25
sbag1
(g21
g3
NtRp980
(dp981
g10
(dp982
sg12
(dp983
sg19
Nsg26
g968
sg27
I50
sbasg26
g284
sbasg26
g276
sbag1
(g7
g3
NtRp984
(dp985
g10
(dp986
sg12
(dp987
(g14
(t(ttp988
g16
((lp989
I32
aI2
aI36
aI70
aI8
aI12
aI79
aI21
aI88
aI57
aI58
atRp990
ssg19
(lp991
g1
(g7
g3
NtRp992
(dp993
g10
(dp994
sg12
(dp995
(g14
(t(ttp996
g16
((lp997
I32
aI2
aI21
aI70
aI88
aI57
aI79
atRp998
ssg19
(lp999
g1
(g21
g3
NtRp1000
(dp1001
g10
(dp1002
sg12
(dp1003
sg19
Nsg26
g992
sg27
I57
sbag1
(g7
g3
NtRp1004
(dp1005
g10
(dp1006
sg12
(dp1007
(g14
(t(ttp1008
g16
((lp1009
I32
aI2
aI21
aI70
aI88
aI79
atRp1010
ssg19
(lp1011
g1
(g21
g3
NtRp1012
(dp1013
g10
(dp1014
sg12
(dp1015
sg19
Nsg26
g1004
sg27
I32
sbag1
(g7
g3
NtRp1016
(dp1017
g10
(dp1018
sg12
(dp1019
(g14
(t(ttp1020
g16
((lp1021
I88
aI2
aI21
aI70
aI79
atRp1022
ssg19
(lp1023
g1
(g7
g3
NtRp1024
(dp1025
g10
(dp1026
sg12
(dp1027
(g14
(t(ttp1028
g16
((lp1029
I88
aI70
atRp1030
ssg19
(lp1031
g1
(g21
g3
NtRp1032
(dp1033
g10
(dp1034
sg12
(dp1035
sg19
Nsg26
g1024
sg27
I70
sbag1
(g21
g3
NtRp1036
(dp1037
g10
(dp1038
sg12
(dp1039
sg19
Nsg26
g1024
sg27
I88
sbasg26
g1016
sbag1
(g7
g3
NtRp1040
(dp1041
g10
(dp1042
sg12
(dp1043
(g14
(t(ttp1044
g16
((lp1045
I2
aI21
aI79
atRp1046
ssg19
(lp1047
g1
(g21
g3
NtRp1048
(dp1049
g10
(dp1050
sg12
(dp1051
sg19
Nsg26
g1040
sg27
I79
sbag1
(g7
g3
NtRp1052
(dp1053
g10
(dp1054
sg12
(dp1055
(g14
(t(ttp1056
g16
((lp1057
I2
aI21
atRp1058
ssg19
(lp1059
g1
(g21
g3
NtRp1060
(dp1061
g10
(dp1062
sg12
(dp1063
sg19
Nsg26
g1052
sg27
I2
sbag1
(g21
g3
NtRp1064
(dp1065
g10
(dp1066
sg12
(dp1067
sg19
Nsg26
g1052
sg27
I21
sbasg26
g1040
sbasg26
g1016
sbasg26
g1004
sbasg26
g992
sbasg26
g984
sbag1
(g7
g3
NtRp1068
(dp1069
g10
(dp1070
sg12
(dp1071
(g14
(t(ttp1072
g16
((lp1073
I8
aI36
aI58
aI12
atRp1074
ssg19
(lp1075
g1
(g7
g3
NtRp1076
(dp1077
g10
(dp1078
sg12
(dp1079
(g14
(t(ttp1080
g16
((lp1081
I8
aI58
aI12
atRp1082
ssg19
(lp1083
g1
(g7
g3
NtRp1084
(dp1085
g10
(dp1086
sg12
(dp1087
(g14
(t(ttp1088
g16
((lp1089
I8
aI58
atRp1090
ssg19
(lp1091
g1
(g21
g3
NtRp1092
(dp1093
g10
(dp1094
sg12
(dp1095
sg19
Nsg26
g1084
sg27
I8
sbag1
(g21
g3
NtRp1096
(dp1097
g10
(dp1098
sg12
(dp1099
sg19
Nsg26
g1084
sg27
I58
sbasg26
g1076
sbag1
(g21
g3
NtRp1100
(dp1101
g10
(dp1102
sg12
(dp1103
sg19
Nsg26
g1076
sg27
I12
sbasg26
g1068
sbag1
(g21
g3
NtRp1104
(dp1105
g10
(dp1106
sg12
(dp1107
sg19
Nsg26
g1068
sg27
I36
sbasg26
g984
sbasg26
g276
sbasg26
g268
sbag1
(g7
g3
NtRp1108
(dp1109
g10
(dp1110
sg12
(dp1111
(g14
(t(ttp1112
g16
((lp1113
I18
aI83
atRp1114
ssg19
(lp1115
g1
(g21
g3
NtRp1116
(dp1117
g10
(dp1118
sg12
(dp1119
sg19
Nsg26
g1108
sg27
I18
sbag1
(g21
g3
NtRp1120
(dp1121
g10
(dp1122
sg12
(dp1123
sg19
Nsg26
g1108
sg27
I83
sbasg26
g268
sbasg26
g256
sbasg26
g28
sbasg26
g8
sbasg26
NsbsS'_all_constraints'
p1124
NsS'parameters'
p1125
(dp1126
sS'constraints'
p1127
c__builtin__
set
p1128
((ltRp1129
sb.